(imatplotlib.font_manager
FontManager
p1
(dp2
S'afm_lookup_cache'
p3
(dp4
sS'ttflist'
p5
(lp6
ccopy_reg
_reconstructor
p7
(cmatplotlib.font_manager
FontEntry
p8
c__builtin__
object
p9
NtRp10
(dp11
S'style'
p12
S'normal'
p13
sS'name'
p14
S'cmb10'
p15
sS'weight'
p16
I400
sS'stretch'
p17
g13
sS'variant'
p18
g13
sS'fname'
p19
S'/usr/share/matplotlib/mpl-data/fonts/ttf/cmb10.ttf'
p20
sS'size'
p21
S'scalable'
p22
sbag7
(g8
g9
NtRp23
(dp24
g12
g13
sg14
S'cmex10'
p25
sg16
I400
sg17
g13
sg18
g13
sg19
S'/usr/share/matplotlib/mpl-data/fonts/ttf/cmex10.ttf'
p26
sg21
g22
sbag7
(g8
g9
NtRp27
(dp28
g12
S'italic'
p29
sg14
S'STIXNonUnicode'
p30
sg16
I400
sg17
g13
sg18
g13
sg19
S'/usr/share/matplotlib/mpl-data/fonts/ttf/STIXNonUniIta.ttf'
p31
sg21
g22
sbag7
(g8
g9
NtRp32
(dp33
g12
g13
sg14
S'STIXNonUnicode'
p34
sg16
I400
sg17
g13
sg18
g13
sg19
S'/usr/share/matplotlib/mpl-data/fonts/ttf/STIXNonUni.ttf'
p35
sg21
g22
sbag7
(g8
g9
NtRp36
(dp37
g12
g13
sg14
S'STIXSizeThreeSym'
p38
sg16
I400
sg17
g13
sg18
g13
sg19
S'/usr/share/matplotlib/mpl-data/fonts/ttf/STIXSizThreeSymReg.ttf'
p39
sg21
g22
sbag7
(g8
g9
NtRp40
(dp41
g12
g13
sg14
S'STIXSizeTwoSym'
p42
sg16
I700
sg17
g13
sg18
g13
sg19
S'/usr/share/matplotlib/mpl-data/fonts/ttf/STIXSizTwoSymBol.ttf'
p43
sg21
g22
sbag7
(g8
g9
NtRp44
(dp45
g12
g13
sg14
S'cmtt10'
p46
sg16
I400
sg17
g13
sg18
g13
sg19
S'/usr/share/matplotlib/mpl-data/fonts/ttf/cmtt10.ttf'
p47
sg21
g22
sbag7
(g8
g9
NtRp48
(dp49
g12
g13
sg14
S'STIXGeneral'
p50
sg16
I400
sg17
g13
sg18
g13
sg19
S'/usr/share/matplotlib/mpl-data/fonts/ttf/STIXGeneral.ttf'
p51
sg21
g22
sbag7
(g8
g9
NtRp52
(dp53
g12
g13
sg14
S'STIXSizeThreeSym'
p54
sg16
I700
sg17
g13
sg18
g13
sg19
S'/usr/share/matplotlib/mpl-data/fonts/ttf/STIXSizThreeSymBol.ttf'
p55
sg21
g22
sbag7
(g8
g9
NtRp56
(dp57
g12
g13
sg14
S'STIXSizeFiveSym'
p58
sg16
I400
sg17
g13
sg18
g13
sg19
S'/usr/share/matplotlib/mpl-data/fonts/ttf/STIXSizFiveSymReg.ttf'
p59
sg21
g22
sbag7
(g8
g9
NtRp60
(dp61
g12
g13
sg14
S'STIXSizeOneSym'
p62
sg16
I700
sg17
g13
sg18
g13
sg19
S'/usr/share/matplotlib/mpl-data/fonts/ttf/STIXSizOneSymBol.ttf'
p63
sg21
g22
sbag7
(g8
g9
NtRp64
(dp65
g12
g13
sg14
S'STIXGeneral'
p66
sg16
I700
sg17
g13
sg18
g13
sg19
S'/usr/share/matplotlib/mpl-data/fonts/ttf/STIXGeneralBol.ttf'
p67
sg21
g22
sbag7
(g8
g9
NtRp68
(dp69
g12
g13
sg14
S'cmr10'
p70
sg16
I400
sg17
g13
sg18
g13
sg19
S'/usr/share/matplotlib/mpl-data/fonts/ttf/cmr10.ttf'
p71
sg21
g22
sbag7
(g8
g9
NtRp72
(dp73
g12
g13
sg14
S'STIXSizeTwoSym'
p74
sg16
I400
sg17
g13
sg18
g13
sg19
S'/usr/share/matplotlib/mpl-data/fonts/ttf/STIXSizTwoSymReg.ttf'
p75
sg21
g22
sbag7
(g8
g9
NtRp76
(dp77
g12
g13
sg14
S'STIXSizeOneSym'
p78
sg16
I400
sg17
g13
sg18
g13
sg19
S'/usr/share/matplotlib/mpl-data/fonts/ttf/STIXSizOneSymReg.ttf'
p79
sg21
g22
sbag7
(g8
g9
NtRp80
(dp81
g12
g13
sg14
S'cmsy10'
p82
sg16
I400
sg17
g13
sg18
g13
sg19
S'/usr/share/matplotlib/mpl-data/fonts/ttf/cmsy10.ttf'
p83
sg21
g22
sbag7
(g8
g9
NtRp84
(dp85
g12
g29
sg14
S'STIXNonUnicode'
p86
sg16
I700
sg17
g13
sg18
g13
sg19
S'/usr/share/matplotlib/mpl-data/fonts/ttf/STIXNonUniBolIta.ttf'
p87
sg21
g22
sbag7
(g8
g9
NtRp88
(dp89
g12
g13
sg14
S'cmss10'
p90
sg16
I400
sg17
g13
sg18
g13
sg19
S'/usr/share/matplotlib/mpl-data/fonts/ttf/cmss10.ttf'
p91
sg21
g22
sbag7
(g8
g9
NtRp92
(dp93
g12
g13
sg14
S'STIXSizeFourSym'
p94
sg16
I700
sg17
g13
sg18
g13
sg19
S'/usr/share/matplotlib/mpl-data/fonts/ttf/STIXSizFourSymBol.ttf'
p95
sg21
g22
sbag7
(g8
g9
NtRp96
(dp97
g12
g29
sg14
S'STIXGeneral'
p98
sg16
I400
sg17
g13
sg18
g13
sg19
S'/usr/share/matplotlib/mpl-data/fonts/ttf/STIXGeneralItalic.ttf'
p99
sg21
g22
sbag7
(g8
g9
NtRp100
(dp101
g12
g13
sg14
S'cmmi10'
p102
sg16
I400
sg17
g13
sg18
g13
sg19
S'/usr/share/matplotlib/mpl-data/fonts/ttf/cmmi10.ttf'
p103
sg21
g22
sbag7
(g8
g9
NtRp104
(dp105
g12
g13
sg14
S'STIXNonUnicode'
p106
sg16
I700
sg17
g13
sg18
g13
sg19
S'/usr/share/matplotlib/mpl-data/fonts/ttf/STIXNonUniBol.ttf'
p107
sg21
g22
sbag7
(g8
g9
NtRp108
(dp109
g12
g29
sg14
S'STIXGeneral'
p110
sg16
I700
sg17
g13
sg18
g13
sg19
S'/usr/share/matplotlib/mpl-data/fonts/ttf/STIXGeneralBolIta.ttf'
p111
sg21
g22
sbag7
(g8
g9
NtRp112
(dp113
g12
g13
sg14
S'STIXSizeFourSym'
p114
sg16
I400
sg17
g13
sg18
g13
sg19
S'/usr/share/matplotlib/mpl-data/fonts/ttf/STIXSizFourSymReg.ttf'
p115
sg21
g22
sbag7
(g8
g9
NtRp116
(dp117
g12
g13
sg14
S'ProggySmallTT'
p118
sg16
I400
sg17
g13
sg18
g13
sg19
S'/home/louis/.fonts/ProggySmall.ttf'
p119
sg21
g22
sbag7
(g8
g9
NtRp120
(dp121
g12
g13
sg14
S'STIXIntegralsUp'
p122
sg16
I400
sg17
g13
sg18
g13
sg19
S'/usr/share/fonts/opentype/stix/STIXIntegralsUp-Regular.otf'
p123
sg21
g22
sbag7
(g8
g9
NtRp124
(dp125
g12
g13
sg14
S'Webdings'
p126
sg16
I400
sg17
g13
sg18
g13
sg19
S'/usr/share/fonts/truetype/msttcorefonts/webdings.ttf'
p127
sg21
g22
sbag7
(g8
g9
NtRp128
(dp129
g12
g29
sg14
S'STIXGeneral'
p130
sg16
I400
sg17
g13
sg18
g13
sg19
S'/usr/share/fonts/opentype/stix/STIXGeneral-Italic.otf'
p131
sg21
g22
sbag7
(g8
g9
NtRp132
(dp133
g12
g13
sg14
S'Droid Sans Ethiopic'
p134
sg16
I700
sg17
g13
sg18
g13
sg19
S'/usr/share/fonts/truetype/droid/DroidSansEthiopic-Bold.ttf'
p135
sg21
g22
sbag7
(g8
g9
NtRp136
(dp137
g12
g13
sg14
S'DejaVu Serif'
p138
sg16
I700
sg17
g13
sg18
g13
sg19
S'/usr/share/fonts/truetype/ttf-dejavu/DejaVuSerif-Bold.ttf'
p139
sg21
g22
sbag7
(g8
g9
NtRp140
(dp141
g12
g29
sg14
S'Linux Libertine Capitals O'
p142
sg16
I400
sg17
g13
sg18
g13
sg19
S'/usr/share/fonts/opentype/linux-libertine/LinLibertine_aSI.otf'
p143
sg21
g22
sbag7
(g8
g9
NtRp144
(dp145
g12
g13
sg14
S'Liberation Sans'
p146
sg16
I700
sg17
g13
sg18
g13
sg19
S'/usr/share/fonts/truetype/ttf-liberation/LiberationSans-Bold.ttf'
p147
sg21
g22
sbag7
(g8
g9
NtRp148
(dp149
g12
g13
sg14
S'Linux Biolinum Shadow O'
p150
sg16
I400
sg17
g13
sg18
g13
sg19
S'/usr/share/fonts/opentype/linux-libertine/LinBiolinum_aW.otf'
p151
sg21
g22
sbag7
(g8
g9
NtRp152
(dp153
g12
g13
sg14
S'Linux Libertine O'
p154
sg16
I700
sg17
g13
sg18
g13
sg19
S'/usr/share/fonts/opentype/linux-libertine/LinLibertine_RB.otf'
p155
sg21
g22
sbag7
(g8
g9
NtRp156
(dp157
g12
g13
sg14
S'Droid Sans Hebrew'
p158
sg16
I700
sg17
g13
sg18
g13
sg19
S'/usr/share/fonts/truetype/droid/DroidSansHebrew-Bold.ttf'
p159
sg21
g22
sbag7
(g8
g9
NtRp160
(dp161
g12
g13
sg14
S'Times New Roman'
p162
sg16
I500
sg17
g13
sg18
g13
sg19
S'/usr/share/fonts/truetype/msttcorefonts/Times_New_Roman.ttf'
p163
sg21
g22
sbag7
(g8
g9
NtRp164
(dp165
g12
g29
sg14
S'Verdana'
p166
sg16
I400
sg17
g13
sg18
g13
sg19
S'/usr/share/fonts/truetype/msttcorefonts/verdanai.ttf'
p167
sg21
g22
sbag7
(g8
g9
NtRp168
(dp169
g12
g13
sg14
S'Inconsolata'
p170
sg16
I400
sg17
g13
sg18
g13
sg19
S'/usr/share/fonts/truetype/inconsolata/Inconsolata.otf'
p171
sg21
g22
sbag7
(g8
g9
NtRp172
(dp173
g12
g13
sg14
S'FreeSerif'
p174
sg16
I400
sg17
g13
sg18
g13
sg19
S'/usr/share/fonts/truetype/freefont/FreeSerif.ttf'
p175
sg21
g22
sbag7
(g8
g9
NtRp176
(dp177
g12
g13
sg14
S'DejaVu Sans'
p178
sg16
I400
sg17
S'condensed'
p179
sg18
g13
sg19
S'/usr/share/fonts/truetype/ttf-dejavu/DejaVuSansCondensed.ttf'
p180
sg21
g22
sbag7
(g8
g9
NtRp181
(dp182
g12
g13
sg14
S'STIXIntegralsUpSm'
p183
sg16
I400
sg17
g13
sg18
g13
sg19
S'/usr/share/fonts/opentype/stix/STIXIntegralsUpSm-Regular.otf'
p184
sg21
g22
sbag7
(g8
g9
NtRp185
(dp186
g12
g13
sg14
S'Liberation Mono'
p187
sg16
I700
sg17
g13
sg18
g13
sg19
S'/usr/share/fonts/truetype/ttf-liberation/LiberationMono-Bold.ttf'
p188
sg21
g22
sbag7
(g8
g9
NtRp189
(dp190
g12
g29
sg14
S'Gentium Basic'
p191
sg16
I400
sg17
g13
sg18
g13
sg19
S'/usr/share/fonts/truetype/gentium-basic/GenBasI.ttf'
p192
sg21
g22
sbag7
(g8
g9
NtRp193
(dp194
g12
g29
sg14
S'Junicode'
p195
sg16
I400
sg17
g13
sg18
g13
sg19
S'/usr/share/fonts/truetype/junicode/Junicode-Italic.ttf'
p196
sg21
g22
sbag7
(g8
g9
NtRp197
(dp198
g12
g13
sg14
S'STIXSizeFiveSym'
p199
sg16
I400
sg17
g13
sg18
g13
sg19
S'/usr/share/fonts/opentype/stix/STIXSizeFiveSym-Regular.otf'
p200
sg21
g22
sbag7
(g8
g9
NtRp201
(dp202
g12
g29
sg14
S'Droid Serif'
p203
sg16
I700
sg17
g13
sg18
g13
sg19
S'/usr/share/fonts/truetype/droid/DroidSerif-BoldItalic.ttf'
p204
sg21
g22
sbag7
(g8
g9
NtRp205
(dp206
g12
g13
sg14
S'Junicode'
p207
sg16
I400
sg17
g13
sg18
g13
sg19
S'/usr/share/fonts/truetype/junicode/Junicode.ttf'
p208
sg21
g22
sbag7
(g8
g9
NtRp209
(dp210
g12
g13
sg14
S'DejaVu Sans Mono'
p211
sg16
I400
sg17
g13
sg18
g13
sg19
S'/usr/share/fonts/truetype/ttf-dejavu/DejaVuSansMono.ttf'
p212
sg21
g22
sbag7
(g8
g9
NtRp213
(dp214
g12
g13
sg14
S'Droid Serif'
p215
sg16
I700
sg17
g13
sg18
g13
sg19
S'/usr/share/fonts/truetype/droid/DroidSerif-Bold.ttf'
p216
sg21
g22
sbag7
(g8
g9
NtRp217
(dp218
g12
g29
sg14
S'Gentium Book Basic'
p219
sg16
I700
sg17
g13
sg18
g13
sg19
S'/usr/share/fonts/truetype/gentium-basic/GenBkBasBI.ttf'
p220
sg21
g22
sbag7
(g8
g9
NtRp221
(dp222
g12
g13
sg14
S'VL Gothic'
p223
sg16
I400
sg17
g13
sg18
g13
sg19
S'/usr/share/fonts/truetype/fonts-japanese-gothic.ttf'
p224
sg21
g22
sbag7
(g8
g9
NtRp225
(dp226
g12
g13
sg14
S'Gentium Book Basic'
p227
sg16
I400
sg17
g13
sg18
g13
sg19
S'/usr/share/fonts/truetype/gentium-basic/GenBkBasR.ttf'
p228
sg21
g22
sbag7
(g8
g9
NtRp229
(dp230
g12
g13
sg14
S'Georgia'
p231
sg16
I700
sg17
g13
sg18
g13
sg19
S'/usr/share/fonts/truetype/msttcorefonts/Georgia_Bold.ttf'
p232
sg21
g22
sbag7
(g8
g9
NtRp233
(dp234
g12
g13
sg14
S'Arial Black'
p235
sg16
I900
sg17
g13
sg18
g13
sg19
S'/usr/share/fonts/truetype/msttcorefonts/ariblk.ttf'
p236
sg21
g22
sbag7
(g8
g9
NtRp237
(dp238
g12
g13
sg14
S'Linux Libertine O'
p239
sg16
I700
sg17
g13
sg18
g13
sg19
S'/usr/share/fonts/opentype/linux-libertine/LinLibertine_RZ.otf'
p240
sg21
g22
sbag7
(g8
g9
NtRp241
(dp242
g12
g13
sg14
S'Asana Math'
p243
sg16
I400
sg17
g13
sg18
g13
sg19
S'/usr/share/fonts/truetype/asana-math/Asana-Math.otf'
p244
sg21
g22
sbag7
(g8
g9
NtRp245
(dp246
g12
g13
sg14
S'Verdana'
p247
sg16
I400
sg17
g13
sg18
g13
sg19
S'/usr/share/fonts/truetype/msttcorefonts/verdana.ttf'
p248
sg21
g22
sbag7
(g8
g9
NtRp249
(dp250
g12
g29
sg14
S'Liberation Mono'
p251
sg16
I400
sg17
g13
sg18
g13
sg19
S'/usr/share/fonts/truetype/ttf-liberation/LiberationMono-Italic.ttf'
p252
sg21
g22
sbag7
(g8
g9
NtRp253
(dp254
g12
g13
sg14
S'msam10'
p255
sg16
I400
sg17
g13
sg18
g13
sg19
S'/usr/share/fonts/truetype/lyx/msam10.ttf'
p256
sg21
g22
sbag7
(g8
g9
NtRp257
(dp258
g12
g29
sg14
S'MathJax_Main'
p259
sg16
I400
sg17
g13
sg18
g13
sg19
S'/usr/share/fonts/opentype/mathjax/MathJax_Main-Italic.otf'
p260
sg21
g22
sbag7
(g8
g9
NtRp261
(dp262
g12
g29
sg14
S'GFS Didot'
p263
sg16
I700
sg17
g13
sg18
g13
sg19
S'/usr/share/fonts/truetype/didot/GFSDidotBoldItalic.otf'
p264
sg21
g22
sbag7
(g8
g9
NtRp265
(dp266
g12
g13
sg14
S'Georgia'
p267
sg16
I700
sg17
g13
sg18
g13
sg19
S'/usr/share/fonts/truetype/msttcorefonts/georgiab.ttf'
p268
sg21
g22
sbag7
(g8
g9
NtRp269
(dp270
g12
g13
sg14
S'DejaVu Serif'
p271
sg16
I400
sg17
g13
sg18
g13
sg19
S'/usr/share/fonts/truetype/ttf-dejavu/DejaVuSerif.ttf'
p272
sg21
g22
sbag7
(g8
g9
NtRp273
(dp274
g12
g13
sg14
S'Liberation Sans Narrow'
p275
sg16
I700
sg17
g179
sg18
g13
sg19
S'/usr/share/fonts/truetype/liberation/LiberationSansNarrow-Bold.ttf'
p276
sg21
g22
sbag7
(g8
g9
NtRp277
(dp278
g12
S'oblique'
p279
sg14
S'FreeSans'
p280
sg16
I400
sg17
g13
sg18
g13
sg19
S'/usr/share/fonts/truetype/freefont/FreeSansOblique.ttf'
p281
sg21
g22
sbag7
(g8
g9
NtRp282
(dp283
g12
g13
sg14
S'Comic Sans MS'
p284
sg16
I700
sg17
g13
sg18
g13
sg19
S'/usr/share/fonts/truetype/msttcorefonts/Comic_Sans_MS_Bold.ttf'
p285
sg21
g22
sbag7
(g8
g9
NtRp286
(dp287
g12
g13
sg14
S'Gentium Basic'
p288
sg16
I700
sg17
g13
sg18
g13
sg19
S'/usr/share/fonts/truetype/gentium-basic/GenBasB.ttf'
p289
sg21
g22
sbag7
(g8
g9
NtRp290
(dp291
g12
g13
sg14
S'Liberation Mono'
p292
sg16
I400
sg17
g13
sg18
g13
sg19
S'/usr/share/fonts/truetype/liberation/LiberationMono-Regular.ttf'
p293
sg21
g22
sbag7
(g8
g9
NtRp294
(dp295
g12
g13
sg14
S'Linux Libertine O'
p296
sg16
I400
sg17
g13
sg18
g13
sg19
S'/usr/share/fonts/opentype/linux-libertine/LinLibertine_R.otf'
p297
sg21
g22
sbag7
(g8
g9
NtRp298
(dp299
g12
g13
sg14
S'Courier New'
p300
sg16
I700
sg17
g13
sg18
g13
sg19
S'/usr/share/fonts/truetype/msttcorefonts/courbd.ttf'
p301
sg21
g22
sbag7
(g8
g9
NtRp302
(dp303
g12
g13
sg14
S'Lohit Devanagari'
p304
sg16
I400
sg17
g13
sg18
g13
sg19
S'/usr/share/fonts/truetype/lohit-devanagari/Lohit-Devanagari.ttf'
p305
sg21
g22
sbag7
(g8
g9
NtRp306
(dp307
g12
g13
sg14
S'Mitra Mono'
p308
sg16
I400
sg17
g13
sg18
g13
sg19
S'/usr/share/fonts/truetype/fonts-beng-extra/mitra.ttf'
p309
sg21
g22
sbag7
(g8
g9
NtRp310
(dp311
g12
g29
sg14
S'rsfs10'
p312
sg16
I400
sg17
g13
sg18
g13
sg19
S'/usr/share/fonts/truetype/lyx/rsfs10.ttf'
p313
sg21
g22
sbag7
(g8
g9
NtRp314
(dp315
g12
g29
sg14
S'Georgia'
p316
sg16
I700
sg17
g13
sg18
g13
sg19
S'/usr/share/fonts/truetype/msttcorefonts/Georgia_Bold_Italic.ttf'
p317
sg21
g22
sbag7
(g8
g9
NtRp318
(dp319
g12
g13
sg14
S'Bitstream Vera Serif'
p320
sg16
I700
sg17
g13
sg18
g13
sg19
S'/usr/share/fonts/truetype/ttf-bitstream-vera/VeraSeBd.ttf'
p321
sg21
g22
sbag7
(g8
g9
NtRp322
(dp323
g12
g279
sg14
S'DejaVu Sans'
p324
sg16
I400
sg17
g13
sg18
g13
sg19
S'/usr/share/fonts/truetype/ttf-dejavu/DejaVuSans-Oblique.ttf'
p325
sg21
g22
sbag7
(g8
g9
NtRp326
(dp327
g12
g13
sg14
S'MarVoSym'
p328
sg16
I400
sg17
g13
sg18
g13
sg19
S'/usr/share/fonts/truetype/ttf-marvosym/marvosym.ttf'
p329
sg21
g22
sbag7
(g8
g9
NtRp330
(dp331
g12
g13
sg14
S'wasy10'
p332
sg16
I400
sg17
g13
sg18
g13
sg19
S'/usr/share/fonts/truetype/lyx/wasy10.ttf'
p333
sg21
g22
sbag7
(g8
g9
NtRp334
(dp335
g12
g13
sg14
S'Liberation Serif'
p336
sg16
I700
sg17
g13
sg18
g13
sg19
S'/usr/share/fonts/truetype/ttf-liberation/LiberationSerif-Bold.ttf'
p337
sg21
g22
sbag7
(g8
g9
NtRp338
(dp339
g12
g13
sg14
S'MathJax_Typewriter'
p340
sg16
I400
sg17
g13
sg18
g13
sg19
S'/usr/share/fonts/opentype/mathjax/MathJax_Typewriter-Regular.otf'
p341
sg21
g22
sbag7
(g8
g9
NtRp342
(dp343
g12
g13
sg14
S'STIXVariants'
p344
sg16
I400
sg17
g13
sg18
g13
sg19
S'/usr/share/fonts/opentype/stix/STIXVariants-Regular.otf'
p345
sg21
g22
sbag7
(g8
g9
NtRp346
(dp347
g12
g13
sg14
S'STIXGeneral'
p348
sg16
I700
sg17
g13
sg18
g13
sg19
S'/usr/share/fonts/opentype/stix/STIXGeneral-Bold.otf'
p349
sg21
g22
sbag7
(g8
g9
NtRp350
(dp351
g12
g29
sg14
S'Times New Roman'
p352
sg16
I700
sg17
g13
sg18
g13
sg19
S'/usr/share/fonts/truetype/msttcorefonts/Times_New_Roman_Bold_Italic.ttf'
p353
sg21
g22
sbag7
(g8
g9
NtRp354
(dp355
g12
g13
sg14
S'Gentium Book Basic'
p356
sg16
I700
sg17
g13
sg18
g13
sg19
S'/usr/share/fonts/truetype/gentium-basic/GenBkBasB.ttf'
p357
sg21
g22
sbag7
(g8
g9
NtRp358
(dp359
g12
g279
sg14
S'DejaVu Sans'
p360
sg16
I700
sg17
g13
sg18
g13
sg19
S'/usr/share/fonts/truetype/ttf-dejavu/DejaVuSans-BoldOblique.ttf'
p361
sg21
g22
sbag7
(g8
g9
NtRp362
(dp363
g12
g13
sg14
S'MathJax_Main'
p364
sg16
I400
sg17
g13
sg18
g13
sg19
S'/usr/share/fonts/opentype/mathjax/MathJax_Main-Regular.otf'
p365
sg21
g22
sbag7
(g8
g9
NtRp366
(dp367
g12
g29
sg14
S'Liberation Sans'
p368
sg16
I400
sg17
g13
sg18
g13
sg19
S'/usr/share/fonts/truetype/ttf-liberation/LiberationSans-Italic.ttf'
p369
sg21
g22
sbag7
(g8
g9
NtRp370
(dp371
g12
g29
sg14
S'Linux Libertine Capitals O'
p372
sg16
I700
sg17
g13
sg18
g13
sg19
S'/usr/share/fonts/opentype/linux-libertine/LinLibertine_aSZI.otf'
p373
sg21
g22
sbag7
(g8
g9
NtRp374
(dp375
g12
g13
sg14
S'Impact'
p376
sg16
I400
sg17
g13
sg18
g13
sg19
S'/usr/share/fonts/truetype/msttcorefonts/Impact.ttf'
p377
sg21
g22
sbag7
(g8
g9
NtRp378
(dp379
g12
g279
sg14
S'DejaVu Sans'
p380
sg16
I700
sg17
g179
sg18
g13
sg19
S'/usr/share/fonts/truetype/ttf-dejavu/DejaVuSansCondensed-BoldOblique.ttf'
p381
sg21
g22
sbag7
(g8
g9
NtRp382
(dp383
g12
g13
sg14
S'MathJax_Size4'
p384
sg16
I400
sg17
g13
sg18
g13
sg19
S'/usr/share/fonts/opentype/mathjax/MathJax_Size4-Regular.otf'
p385
sg21
g22
sbag7
(g8
g9
NtRp386
(dp387
g12
g13
sg14
S'Georgia'
p388
sg16
I400
sg17
g13
sg18
g13
sg19
S'/usr/share/fonts/truetype/msttcorefonts/Georgia.ttf'
p389
sg21
g22
sbag7
(g8
g9
NtRp390
(dp391
g12
g13
sg14
S'Sarai'
p392
sg16
I400
sg17
g13
sg18
g13
sg19
S'/usr/share/fonts/truetype/fonts-deva-extra/Sarai_07.ttf'
p393
sg21
g22
sbag7
(g8
g9
NtRp394
(dp395
g12
g13
sg14
S'GFS Artemisia'
p396
sg16
I700
sg17
g13
sg18
g13
sg19
S'/usr/share/fonts/truetype/artemisia/GFSArtemisiaBold.otf'
p397
sg21
g22
sbag7
(g8
g9
NtRp398
(dp399
g12
g13
sg14
S'Gentium Basic'
p400
sg16
I400
sg17
g13
sg18
g13
sg19
S'/usr/share/fonts/truetype/gentium-basic/GenBasR.ttf'
p401
sg21
g22
sbag7
(g8
g9
NtRp402
(dp403
g12
g13
sg14
S'Droid Serif'
p404
sg16
I400
sg17
g13
sg18
g13
sg19
S'/usr/share/fonts/truetype/droid/DroidSerif-Regular.ttf'
p405
sg21
g22
sbag7
(g8
g9
NtRp406
(dp407
g12
g13
sg14
S'Comfortaa'
p408
sg16
I200
sg17
g13
sg18
g13
sg19
S'/usr/share/fonts/truetype/comfortaa/Comfortaa-Light.ttf'
p409
sg21
g22
sbag7
(g8
g9
NtRp410
(dp411
g12
g13
sg14
S'msbm10'
p412
sg16
I400
sg17
g13
sg18
g13
sg19
S'/usr/share/fonts/truetype/lyx/msbm10.ttf'
p413
sg21
g22
sbag7
(g8
g9
NtRp414
(dp415
g12
g29
sg14
S'Liberation Serif'
p416
sg16
I700
sg17
g13
sg18
g13
sg19
S'/usr/share/fonts/truetype/liberation/LiberationSerif-BoldItalic.ttf'
p417
sg21
g22
sbag7
(g8
g9
NtRp418
(dp419
g12
g29
sg14
S'Linux Biolinum Shadow O'
p420
sg16
I400
sg17
g13
sg18
g13
sg19
S'/usr/share/fonts/opentype/linux-libertine/LinBiolinum_aWI.otf'
p421
sg21
g22
sbag7
(g8
g9
NtRp422
(dp423
g12
g13
sg14
S'Andale Mono'
p424
sg16
I400
sg17
g13
sg18
g13
sg19
S'/usr/share/fonts/truetype/msttcorefonts/andalemo.ttf'
p425
sg21
g22
sbag7
(g8
g9
NtRp426
(dp427
g12
g13
sg14
S'DejaVu Sans'
p428
sg16
I400
sg17
g13
sg18
g13
sg19
S'/usr/share/fonts/truetype/ttf-dejavu/DejaVuSans.ttf'
p429
sg21
g22
sbag7
(g8
g9
NtRp430
(dp431
g12
g29
sg14
S'Arial'
p432
sg16
I700
sg17
g13
sg18
g13
sg19
S'/usr/share/fonts/truetype/msttcorefonts/arialbi.ttf'
p433
sg21
g22
sbag7
(g8
g9
NtRp434
(dp435
g12
g13
sg14
S'MathJax_Caligraphic'
p436
sg16
I700
sg17
g13
sg18
g13
sg19
S'/usr/share/fonts/opentype/mathjax/MathJax_Caligraphic-Bold.otf'
p437
sg21
g22
sbag7
(g8
g9
NtRp438
(dp439
g12
g29
sg14
S'STIXGeneral'
p440
sg16
I700
sg17
g13
sg18
g13
sg19
S'/usr/share/fonts/opentype/stix/STIXGeneral-BoldItalic.otf'
p441
sg21
g22
sbag7
(g8
g9
NtRp442
(dp443
g12
g13
sg14
S'Linux Libertine Display O'
p444
sg16
I400
sg17
g13
sg18
g13
sg19
S'/usr/share/fonts/opentype/linux-libertine/LinLibertine_DR.otf'
p445
sg21
g22
sbag7
(g8
g9
NtRp446
(dp447
g12
g13
sg14
S'DejaVu Sans Mono'
p448
sg16
I700
sg17
g13
sg18
g13
sg19
S'/usr/share/fonts/truetype/ttf-dejavu/DejaVuSansMono-Bold.ttf'
p449
sg21
g22
sbag7
(g8
g9
NtRp450
(dp451
g12
g13
sg14
S'STIXIntegralsUp'
p452
sg16
I700
sg17
g13
sg18
g13
sg19
S'/usr/share/fonts/opentype/stix/STIXIntegralsUp-Bold.otf'
p453
sg21
g22
sbag7
(g8
g9
NtRp454
(dp455
g12
g29
sg14
S'Linux Libertine Slanted O'
p456
sg16
I400
sg17
g13
sg18
g13
sg19
S'/usr/share/fonts/opentype/linux-libertine/LinLibertine_aRL.otf'
p457
sg21
g22
sbag7
(g8
g9
NtRp458
(dp459
g12
g29
sg14
S'Courier New'
p460
sg16
I400
sg17
g13
sg18
g13
sg19
S'/usr/share/fonts/truetype/msttcorefonts/Courier_New_Italic.ttf'
p461
sg21
g22
sbag7
(g8
g9
NtRp462
(dp463
g12
g279
sg14
S'FreeSans'
p464
sg16
I700
sg17
g13
sg18
g13
sg19
S'/usr/share/fonts/opentype/freefont/FreeSansBoldOblique.otf'
p465
sg21
g22
sbag7
(g8
g9
NtRp466
(dp467
g12
g279
sg14
S'DejaVu Sans'
p468
sg16
I400
sg17
g179
sg18
g13
sg19
S'/usr/share/fonts/truetype/ttf-dejavu/DejaVuSansCondensed-Oblique.ttf'
p469
sg21
g22
sbag7
(g8
g9
NtRp470
(dp471
g12
g13
sg14
S'Courier New'
p472
sg16
I400
sg17
g13
sg18
g13
sg19
S'/usr/share/fonts/truetype/msttcorefonts/cour.ttf'
p473
sg21
g22
sbag7
(g8
g9
NtRp474
(dp475
g12
g13
sg14
S'DejaVu Serif'
p476
sg16
I700
sg17
g179
sg18
g13
sg19
S'/usr/share/fonts/truetype/ttf-dejavu/DejaVuSerifCondensed-Bold.ttf'
p477
sg21
g22
sbag7
(g8
g9
NtRp478
(dp479
g12
g13
sg14
S'Linux Biolinum O'
p480
sg16
I700
sg17
g13
sg18
g13
sg19
S'/usr/share/fonts/opentype/linux-libertine/LinBiolinum_RB.otf'
p481
sg21
g22
sbag7
(g8
g9
NtRp482
(dp483
g12
g29
sg14
S'Liberation Serif'
p484
sg16
I400
sg17
g13
sg18
g13
sg19
S'/usr/share/fonts/truetype/ttf-liberation/LiberationSerif-Italic.ttf'
p485
sg21
g22
sbag7
(g8
g9
NtRp486
(dp487
g12
g279
sg14
S'Bitstream Vera Sans'
p488
sg16
I700
sg17
g13
sg18
g13
sg19
S'/usr/share/fonts/truetype/ttf-bitstream-vera/VeraBI.ttf'
p489
sg21
g22
sbag7
(g8
g9
NtRp490
(dp491
g12
g279
sg14
S'FreeMono'
p492
sg16
I400
sg17
g13
sg18
g13
sg19
S'/usr/share/fonts/opentype/freefont/FreeMonoOblique.otf'
p493
sg21
g22
sbag7
(g8
g9
NtRp494
(dp495
g12
g13
sg14
S'STIXNonUnicode'
p496
sg16
I400
sg17
g13
sg18
g13
sg19
S'/usr/share/fonts/opentype/stix/STIXNonUnicode-Regular.otf'
p497
sg21
g22
sbag7
(g8
g9
NtRp498
(dp499
g12
g13
sg14
S'eufm10'
p500
sg16
I400
sg17
g13
sg18
g13
sg19
S'/usr/share/fonts/truetype/lyx/eufm10.ttf'
p501
sg21
g22
sbag7
(g8
g9
NtRp502
(dp503
g12
g13
sg14
S'Droid Sans'
p504
sg16
I400
sg17
g13
sg18
g13
sg19
S'/usr/share/fonts/truetype/droid/DroidSans.ttf'
p505
sg21
g22
sbag7
(g8
g9
NtRp506
(dp507
g12
g29
sg14
S'DejaVu Serif'
p508
sg16
I700
sg17
g13
sg18
g13
sg19
S'/usr/share/fonts/truetype/ttf-dejavu/DejaVuSerif-BoldItalic.ttf'
p509
sg21
g22
sbag7
(g8
g9
NtRp510
(dp511
g12
g13
sg14
S'esint10'
p512
sg16
I400
sg17
g13
sg18
g13
sg19
S'/usr/share/fonts/truetype/lyx/esint10.ttf'
p513
sg21
g22
sbag7
(g8
g9
NtRp514
(dp515
g12
g13
sg14
S'Trebuchet MS'
p516
sg16
I400
sg17
g13
sg18
g13
sg19
S'/usr/share/fonts/truetype/msttcorefonts/Trebuchet_MS.ttf'
p517
sg21
g22
sbag7
(g8
g9
NtRp518
(dp519
g12
g29
sg14
S'GFS Neohellenic'
p520
sg16
I400
sg17
g13
sg18
g13
sg19
S'/usr/share/fonts/truetype/neohellenic/GFSNeohellenicIt.otf'
p521
sg21
g22
sbag7
(g8
g9
NtRp522
(dp523
g12
g13
sg14
S'STIXIntegralsUpD'
p524
sg16
I400
sg17
g13
sg18
g13
sg19
S'/usr/share/fonts/opentype/stix/STIXIntegralsUpD-Regular.otf'
p525
sg21
g22
sbag7
(g8
g9
NtRp526
(dp527
g12
g13
sg14
S'ProggyTinyTTSZ'
p528
sg16
I400
sg17
g13
sg18
g13
sg19
S'/home/louis/.fonts/ProggyTinySZ.ttf'
p529
sg21
g22
sbag7
(g8
g9
NtRp530
(dp531
g12
g29
sg14
S'Linux Libertine Display Slanted O'
p532
sg16
I400
sg17
g13
sg18
g13
sg19
S'/usr/share/fonts/opentype/linux-libertine/LinLibertine_aDRL.otf'
p533
sg21
g22
sbag7
(g8
g9
NtRp534
(dp535
g12
g13
sg14
S'VL PGothic'
p536
sg16
I400
sg17
g13
sg18
g13
sg19
S'/usr/share/fonts/truetype/vlgothic/VL-PGothic-Regular.ttf'
p537
sg21
g22
sbag7
(g8
g9
NtRp538
(dp539
g12
g29
sg14
S'Liberation Sans Narrow'
p540
sg16
I700
sg17
g179
sg18
g13
sg19
S'/usr/share/fonts/truetype/ttf-liberation/LiberationSansNarrow-BoldItalic.ttf'
p541
sg21
g22
sbag7
(g8
g9
NtRp542
(dp543
g12
g29
sg14
S'Junicode'
p544
sg16
I700
sg17
g13
sg18
g13
sg19
S'/usr/share/fonts/truetype/junicode/Junicode-BoldItalic.ttf'
p545
sg21
g22
sbag7
(g8
g9
NtRp546
(dp547
g12
g13
sg14
S'Droid Arabic Naskh'
p548
sg16
I700
sg17
g13
sg18
g13
sg19
S'/usr/share/fonts/truetype/droid/DroidNaskh-Bold.ttf'
p549
sg21
g22
sbag7
(g8
g9
NtRp550
(dp551
g12
g29
sg14
S'Linux Biolinum Capitals O'
p552
sg16
I400
sg17
g13
sg18
g13
sg19
S'/usr/share/fonts/opentype/linux-libertine/LinBiolinum_aSI.otf'
p553
sg21
g22
sbag7
(g8
g9
NtRp554
(dp555
g12
g29
sg14
S'Linux Libertine Capitals O'
p556
sg16
I700
sg17
g13
sg18
g13
sg19
S'/usr/share/fonts/opentype/linux-libertine/LinLibertine_aSBI.otf'
p557
sg21
g22
sbag7
(g8
g9
NtRp558
(dp559
g12
g279
sg14
S'FreeMono'
p560
sg16
I700
sg17
g13
sg18
g13
sg19
S'/usr/share/fonts/opentype/freefont/FreeMonoBoldOblique.otf'
p561
sg21
g22
sbag7
(g8
g9
NtRp562
(dp563
g12
g29
sg14
S'Trebuchet MS'
p564
sg16
I400
sg17
g13
sg18
g13
sg19
S'/usr/share/fonts/truetype/msttcorefonts/Trebuchet_MS_Italic.ttf'
p565
sg21
g22
sbag7
(g8
g9
NtRp566
(dp567
g12
g13
sg14
S'Linux Libertine Display Capitals O'
p568
sg16
I400
sg17
g13
sg18
g13
sg19
S'/usr/share/fonts/opentype/linux-libertine/LinLibertine_aDRS.otf'
p569
sg21
g22
sbag7
(g8
g9
NtRp570
(dp571
g12
g279
sg14
S'FreeSans'
p572
sg16
I400
sg17
g13
sg18
g13
sg19
S'/usr/share/fonts/opentype/freefont/FreeSansOblique.otf'
p573
sg21
g22
sbag7
(g8
g9
NtRp574
(dp575
g12
g13
sg14
S'Comic Sans MS'
p576
sg16
I700
sg17
g13
sg18
g13
sg19
S'/usr/share/fonts/truetype/msttcorefonts/comicbd.ttf'
p577
sg21
g22
sbag7
(g8
g9
NtRp578
(dp579
g12
g13
sg14
S'MathJax_AMS'
p580
sg16
I400
sg17
g13
sg18
g13
sg19
S'/usr/share/fonts/opentype/mathjax/MathJax_AMS-Regular.otf'
p581
sg21
g22
sbag7
(g8
g9
NtRp582
(dp583
g12
g13
sg14
S'Ani'
p584
sg16
I400
sg17
g13
sg18
g13
sg19
S'/usr/share/fonts/truetype/fonts-beng-extra/ani.ttf'
p585
sg21
g22
sbag7
(g8
g9
NtRp586
(dp587
g12
g13
sg14
S'Arial'
p588
sg16
I400
sg17
g13
sg18
g13
sg19
S'/usr/share/fonts/truetype/msttcorefonts/Arial.ttf'
p589
sg21
g22
sbag7
(g8
g9
NtRp590
(dp591
g12
g13
sg14
S'Linux Libertine Capitals O'
p592
sg16
I400
sg17
g13
sg18
g13
sg19
S'/usr/share/fonts/opentype/linux-libertine/LinLibertine_aS.otf'
p593
sg21
g22
sbag7
(g8
g9
NtRp594
(dp595
g12
g29
sg14
S'Linux Libertine Slanted O'
p596
sg16
I700
sg17
g13
sg18
g13
sg19
S'/usr/share/fonts/opentype/linux-libertine/LinLibertine_aBL.otf'
p597
sg21
g22
sbag7
(g8
g9
NtRp598
(dp599
g12
g13
sg14
S'Mukti Narrow'
p600
sg16
I400
sg17
g13
sg18
g13
sg19
S'/usr/share/fonts/truetype/fonts-beng-extra/MuktiNarrow.ttf'
p601
sg21
g22
sbag7
(g8
g9
NtRp602
(dp603
g12
g13
sg14
S'VL Gothic'
p604
sg16
I400
sg17
g13
sg18
g13
sg19
S'/usr/share/fonts/truetype/vlgothic/VL-Gothic-Regular.ttf'
p605
sg21
g22
sbag7
(g8
g9
NtRp606
(dp607
g12
g13
sg14
S'DejaVu Sans'
p608
sg16
I700
sg17
g179
sg18
g13
sg19
S'/usr/share/fonts/truetype/ttf-dejavu/DejaVuSansCondensed-Bold.ttf'
p609
sg21
g22
sbag7
(g8
g9
NtRp610
(dp611
g12
g29
sg14
S'Verdana'
p612
sg16
I400
sg17
g13
sg18
g13
sg19
S'/usr/share/fonts/truetype/msttcorefonts/Verdana_Italic.ttf'
p613
sg21
g22
sbag7
(g8
g9
NtRp614
(dp615
g12
g13
sg14
S'FreeSerif'
p616
sg16
I700
sg17
g13
sg18
g13
sg19
S'/usr/share/fonts/opentype/freefont/FreeSerifBold.otf'
p617
sg21
g22
sbag7
(g8
g9
NtRp618
(dp619
g12
g29
sg14
S'Linux Libertine Slanted O'
p620
sg16
I700
sg17
g13
sg18
g13
sg19
S'/usr/share/fonts/opentype/linux-libertine/LinLibertine_aZL.otf'
p621
sg21
g22
sbag7
(g8
g9
NtRp622
(dp623
g12
g29
sg14
S'Liberation Sans'
p624
sg16
I700
sg17
g13
sg18
g13
sg19
S'/usr/share/fonts/truetype/ttf-liberation/LiberationSans-BoldItalic.ttf'
p625
sg21
g22
sbag7
(g8
g9
NtRp626
(dp627
g12
g13
sg14
S'gargi'
p628
sg16
I400
sg17
g13
sg18
g13
sg19
S'/usr/share/fonts/truetype/fonts-deva-extra/gargi.ttf'
p629
sg21
g22
sbag7
(g8
g9
NtRp630
(dp631
g12
g29
sg14
S'STIXNonUnicode'
p632
sg16
I400
sg17
g13
sg18
g13
sg19
S'/usr/share/fonts/opentype/stix/STIXNonUnicode-Italic.otf'
p633
sg21
g22
sbag7
(g8
g9
NtRp634
(dp635
g12
g13
sg14
S'Courier New'
p636
sg16
I400
sg17
g13
sg18
g13
sg19
S'/usr/share/fonts/truetype/msttcorefonts/Courier_New.ttf'
p637
sg21
g22
sbag7
(g8
g9
NtRp638
(dp639
g12
g29
sg14
S'Arial'
p640
sg16
I400
sg17
g13
sg18
g13
sg19
S'/usr/share/fonts/truetype/msttcorefonts/Arial_Italic.ttf'
p641
sg21
g22
sbag7
(g8
g9
NtRp642
(dp643
g12
g13
sg14
S'Trebuchet MS'
p644
sg16
I400
sg17
g13
sg18
g13
sg19
S'/usr/share/fonts/truetype/msttcorefonts/trebuc.ttf'
p645
sg21
g22
sbag7
(g8
g9
NtRp646
(dp647
g12
g29
sg14
S'DejaVu Serif'
p648
sg16
I700
sg17
g179
sg18
g13
sg19
S'/usr/share/fonts/truetype/ttf-dejavu/DejaVuSerifCondensed-BoldItalic.ttf'
p649
sg21
g22
sbag7
(g8
g9
NtRp650
(dp651
g12
g279
sg14
S'Bitstream Vera Sans'
p652
sg16
I400
sg17
g13
sg18
g13
sg19
S'/usr/share/fonts/truetype/ttf-bitstream-vera/VeraIt.ttf'
p653
sg21
g22
sbag7
(g8
g9
NtRp654
(dp655
g12
g13
sg14
S'MathJax_SansSerif'
p656
sg16
I400
sg17
g13
sg18
g13
sg19
S'/usr/share/fonts/opentype/mathjax/MathJax_SansSerif-Regular.otf'
p657
sg21
g22
sbag7
(g8
g9
NtRp658
(dp659
g12
g13
sg14
S'MathJax_Fraktur'
p660
sg16
I700
sg17
g13
sg18
g13
sg19
S'/usr/share/fonts/opentype/mathjax/MathJax_Fraktur-Bold.otf'
p661
sg21
g22
sbag7
(g8
g9
NtRp662
(dp663
g12
g13
sg14
S'Arial'
p664
sg16
I700
sg17
g13
sg18
g13
sg19
S'/usr/share/fonts/truetype/msttcorefonts/Arial_Bold.ttf'
p665
sg21
g22
sbag7
(g8
g9
NtRp666
(dp667
g12
g13
sg14
S'FreeSans'
p668
sg16
I700
sg17
g13
sg18
g13
sg19
S'/usr/share/fonts/truetype/freefont/FreeSansBold.ttf'
p669
sg21
g22
sbag7
(g8
g9
NtRp670
(dp671
g12
g13
sg14
S'MathJax_Math'
p672
sg16
I400
sg17
g13
sg18
g13
sg19
S'/usr/share/fonts/opentype/mathjax/MathJax_Math-Regular.otf'
p673
sg21
g22
sbag7
(g8
g9
NtRp674
(dp675
g12
g13
sg14
S'FreeSans'
p676
sg16
I400
sg17
g13
sg18
g13
sg19
S'/usr/share/fonts/opentype/freefont/FreeSans.otf'
p677
sg21
g22
sbag7
(g8
g9
NtRp678
(dp679
g12
g13
sg14
S'GFS Didot'
p680
sg16
I400
sg17
g13
sg18
g13
sg19
S'/usr/share/fonts/truetype/didot/GFSDidot.otf'
p681
sg21
g22
sbag7
(g8
g9
NtRp682
(dp683
g12
g29
sg14
S'Gentium'
p684
sg16
I400
sg17
g13
sg18
g13
sg19
S'/usr/share/fonts/truetype/gentium/GenI102.ttf'
p685
sg21
g22
sbag7
(g8
g9
NtRp686
(dp687
g12
g279
sg14
S'DejaVu Sans Mono'
p688
sg16
I700
sg17
g13
sg18
g13
sg19
S'/usr/share/fonts/truetype/ttf-dejavu/DejaVuSansMono-BoldOblique.ttf'
p689
sg21
g22
sbag7
(g8
g9
NtRp690
(dp691
g12
g29
sg14
S'Verdana'
p692
sg16
I700
sg17
g13
sg18
g13
sg19
S'/usr/share/fonts/truetype/msttcorefonts/verdanaz.ttf'
p693
sg21
g22
sbag7
(g8
g9
NtRp694
(dp695
g12
g13
sg14
S'Droid Sans Georgian'
p696
sg16
I400
sg17
g13
sg18
g13
sg19
S'/usr/share/fonts/truetype/droid/DroidSansGeorgian.ttf'
p697
sg21
g22
sbag7
(g8
g9
NtRp698
(dp699
g12
g13
sg14
S'FreeMono'
p700
sg16
I700
sg17
g13
sg18
g13
sg19
S'/usr/share/fonts/truetype/freefont/FreeMonoBold.ttf'
p701
sg21
g22
sbag7
(g8
g9
NtRp702
(dp703
g12
g13
sg14
S'MathJax_Caligraphic'
p704
sg16
I400
sg17
g13
sg18
g13
sg19
S'/usr/share/fonts/opentype/mathjax/MathJax_Caligraphic-Regular.otf'
p705
sg21
g22
sbag7
(g8
g9
NtRp706
(dp707
g12
g13
sg14
S'DejaVu Sans'
p708
sg16
I700
sg17
g13
sg18
g13
sg19
S'/usr/share/fonts/truetype/ttf-dejavu/DejaVuSans-Bold.ttf'
p709
sg21
g22
sbag7
(g8
g9
NtRp710
(dp711
g12
g13
sg14
S'Bitstream Vera Sans Mono'
p712
sg16
I400
sg17
g13
sg18
g13
sg19
S'/usr/share/fonts/truetype/ttf-bitstream-vera/VeraMono.ttf'
p713
sg21
g22
sbag7
(g8
g9
NtRp714
(dp715
g12
g13
sg14
S'ProggySquareTT'
p716
sg16
I400
sg17
g13
sg18
g13
sg19
S'/home/louis/.fonts/ProggySquare.ttf'
p717
sg21
g22
sbag7
(g8
g9
NtRp718
(dp719
g12
g13
sg14
S'DejaVu Sans'
p720
sg16
I200
sg17
g13
sg18
g13
sg19
S'/usr/share/fonts/truetype/ttf-dejavu/DejaVuSans-ExtraLight.ttf'
p721
sg21
g22
sbag7
(g8
g9
NtRp722
(dp723
g12
g13
sg14
S'Georgia'
p724
sg16
I400
sg17
g13
sg18
g13
sg19
S'/usr/share/fonts/truetype/msttcorefonts/georgia.ttf'
p725
sg21
g22
sbag7
(g8
g9
NtRp726
(dp727
g12
g13
sg14
S'Mukti Narrow'
p728
sg16
I700
sg17
g13
sg18
g13
sg19
S'/usr/share/fonts/truetype/fonts-beng-extra/MuktiNarrowBold.ttf'
p729
sg21
g22
sbag7
(g8
g9
NtRp730
(dp731
g12
g13
sg14
S'GFS Artemisia'
p732
sg16
I400
sg17
g13
sg18
g13
sg19
S'/usr/share/fonts/truetype/artemisia/GFSArtemisia.otf'
p733
sg21
g22
sbag7
(g8
g9
NtRp734
(dp735
g12
g13
sg14
S'Bitstream Vera Sans'
p736
sg16
I400
sg17
g13
sg18
g13
sg19
S'/usr/share/fonts/truetype/ttf-bitstream-vera/Vera.ttf'
p737
sg21
g22
sbag7
(g8
g9
NtRp738
(dp739
g12
g13
sg14
S'Linux Biolinum Outline O'
p740
sg16
I700
sg17
g13
sg18
g13
sg19
S'/usr/share/fonts/opentype/linux-libertine/LinBiolinum_aUB.otf'
p741
sg21
g22
sbag7
(g8
g9
NtRp742
(dp743
g12
g29
sg14
S'FreeSerif'
p744
sg16
I700
sg17
g13
sg18
g13
sg19
S'/usr/share/fonts/opentype/freefont/FreeSerifBoldItalic.otf'
p745
sg21
g22
sbag7
(g8
g9
NtRp746
(dp747
g12
g29
sg14
S'Georgia'
p748
sg16
I400
sg17
g13
sg18
g13
sg19
S'/usr/share/fonts/truetype/msttcorefonts/georgiai.ttf'
p749
sg21
g22
sbag7
(g8
g9
NtRp750
(dp751
g12
g13
sg14
S'Andale Mono'
p752
sg16
I400
sg17
g13
sg18
g13
sg19
S'/usr/share/fonts/truetype/msttcorefonts/Andale_Mono.ttf'
p753
sg21
g22
sbag7
(g8
g9
NtRp754
(dp755
g12
g13
sg14
S'FreeMono'
p756
sg16
I400
sg17
g13
sg18
g13
sg19
S'/usr/share/fonts/opentype/freefont/FreeMono.otf'
p757
sg21
g22
sbag7
(g8
g9
NtRp758
(dp759
g12
g29
sg14
S'Linux Libertine O'
p760
sg16
I700
sg17
g13
sg18
g13
sg19
S'/usr/share/fonts/opentype/linux-libertine/LinLibertine_RZI.otf'
p761
sg21
g22
sbag7
(g8
g9
NtRp762
(dp763
g12
g13
sg14
S'Liberation Serif'
p764
sg16
I400
sg17
g13
sg18
g13
sg19
S'/usr/share/fonts/truetype/ttf-liberation/LiberationSerif-Regular.ttf'
p765
sg21
g22
sbag7
(g8
g9
NtRp766
(dp767
g12
g29
sg14
S'Linux Libertine O'
p768
sg16
I400
sg17
g13
sg18
g13
sg19
S'/usr/share/fonts/opentype/linux-libertine/LinLibertine_RI.otf'
p769
sg21
g22
sbag7
(g8
g9
NtRp770
(dp771
g12
g13
sg14
S'Droid Sans Mono'
p772
sg16
I400
sg17
g13
sg18
g13
sg19
S'/usr/share/fonts/truetype/droid/DroidSansMono.ttf'
p773
sg21
g22
sbag7
(g8
g9
NtRp774
(dp775
g12
g13
sg14
S'Linux Biolinum O'
p776
sg16
I400
sg17
g13
sg18
g13
sg19
S'/usr/share/fonts/opentype/linux-libertine/LinBiolinum_R.otf'
p777
sg21
g22
sbag7
(g8
g9
NtRp778
(dp779
g12
g13
sg14
S'FreeSerif'
p780
sg16
I400
sg17
g13
sg18
g13
sg19
S'/usr/share/fonts/opentype/freefont/FreeSerif.otf'
p781
sg21
g22
sbag7
(g8
g9
NtRp782
(dp783
g12
g13
sg14
S'Comfortaa'
p784
sg16
I400
sg17
g13
sg18
g13
sg19
S'/usr/share/fonts/truetype/comfortaa/Comfortaa-Regular.ttf'
p785
sg21
g22
sbag7
(g8
g9
NtRp786
(dp787
g12
g13
sg14
S'Times New Roman'
p788
sg16
I500
sg17
g13
sg18
g13
sg19
S'/usr/share/fonts/truetype/msttcorefonts/times.ttf'
p789
sg21
g22
sbag7
(g8
g9
NtRp790
(dp791
g12
g29
sg14
S'Liberation Mono'
p792
sg16
I700
sg17
g13
sg18
g13
sg19
S'/usr/share/fonts/truetype/liberation/LiberationMono-BoldItalic.ttf'
p793
sg21
g22
sbag7
(g8
g9
NtRp794
(dp795
g12
g13
sg14
S'Nakula'
p796
sg16
I400
sg17
g13
sg18
g13
sg19
S'/usr/share/fonts/truetype/fonts-nakula/nakula.ttf'
p797
sg21
g22
sbag7
(g8
g9
NtRp798
(dp799
g12
g13
sg14
S'Samanata'
p800
sg16
I400
sg17
g13
sg18
g13
sg19
S'/usr/share/fonts/truetype/fonts-deva-extra/samanata.ttf'
p801
sg21
g22
sbag7
(g8
g9
NtRp802
(dp803
g12
g29
sg14
S'Courier New'
p804
sg16
I400
sg17
g13
sg18
g13
sg19
S'/usr/share/fonts/truetype/msttcorefonts/couri.ttf'
p805
sg21
g22
sbag7
(g8
g9
NtRp806
(dp807
g12
g29
sg14
S'GFS Didot'
p808
sg16
I700
sg17
g13
sg18
g13
sg19
S'/usr/share/fonts/truetype/artemisia/GFSArtemisiaBoldIt.otf'
p809
sg21
g22
sbag7
(g8
g9
NtRp810
(dp811
g12
g13
sg14
S'Linux Libertine Capitals O'
p812
sg16
I700
sg17
g13
sg18
g13
sg19
S'/usr/share/fonts/opentype/linux-libertine/LinLibertine_aZS.otf'
p813
sg21
g22
sbag7
(g8
g9
NtRp814
(dp815
g12
g29
sg14
S'FreeSerif'
p816
sg16
I400
sg17
g13
sg18
g13
sg19
S'/usr/share/fonts/opentype/freefont/FreeSerifItalic.otf'
p817
sg21
g22
sbag7
(g8
g9
NtRp818
(dp819
g12
g13
sg14
S'Comfortaa'
p820
sg16
I700
sg17
g13
sg18
g13
sg19
S'/usr/share/fonts/truetype/comfortaa/Comfortaa-Bold.ttf'
p821
sg21
g22
sbag7
(g8
g9
NtRp822
(dp823
g12
g13
sg14
S'Linux Biolinum Capitals O'
p824
sg16
I700
sg17
g13
sg18
g13
sg19
S'/usr/share/fonts/opentype/linux-libertine/LinBiolinum_aSB.otf'
p825
sg21
g22
sbag7
(g8
g9
NtRp826
(dp827
g12
g13
sg14
S'GFS Olga'
p828
sg16
I400
sg17
g13
sg18
g13
sg19
S'/usr/share/fonts/truetype/olga/GFSOlga.otf'
p829
sg21
g22
sbag7
(g8
g9
NtRp830
(dp831
g12
g279
sg14
S'Samarkan'
p832
sg16
I400
sg17
g13
sg18
g13
sg19
S'/home/louis/.fonts/SAMARO__.TTF'
p833
sg21
g22
sbag7
(g8
g9
NtRp834
(dp835
g12
g13
sg14
S'Linux Libertine Capitals O'
p836
sg16
I700
sg17
g13
sg18
g13
sg19
S'/usr/share/fonts/opentype/linux-libertine/LinLibertine_aBS.otf'
p837
sg21
g22
sbag7
(g8
g9
NtRp838
(dp839
g12
g13
sg14
S'MathJax_Fraktur'
p840
sg16
I400
sg17
g13
sg18
g13
sg19
S'/usr/share/fonts/opentype/mathjax/MathJax_Fraktur-Regular.otf'
p841
sg21
g22
sbag7
(g8
g9
NtRp842
(dp843
g12
g13
sg14
S'MathJax_WinIE6'
p844
sg16
I400
sg17
g13
sg18
g13
sg19
S'/usr/share/fonts/opentype/mathjax/MathJax_WinIE6-Regular.otf'
p845
sg21
g22
sbag7
(g8
g9
NtRp846
(dp847
g12
g13
sg14
S'Bitstream Vera Sans'
p848
sg16
I700
sg17
g13
sg18
g13
sg19
S'/usr/share/fonts/truetype/ttf-bitstream-vera/VeraBd.ttf'
p849
sg21
g22
sbag7
(g8
g9
NtRp850
(dp851
g12
g13
sg14
S'OpenSymbol'
p852
sg16
I400
sg17
g13
sg18
g13
sg19
S'/usr/share/fonts/truetype/openoffice/opens___.ttf'
p853
sg21
g22
sbag7
(g8
g9
NtRp854
(dp855
g12
g29
sg14
S'Verdana'
p856
sg16
I700
sg17
g13
sg18
g13
sg19
S'/usr/share/fonts/truetype/msttcorefonts/Verdana_Bold_Italic.ttf'
p857
sg21
g22
sbag7
(g8
g9
NtRp858
(dp859
g12
g29
sg14
S'GentiumAlt'
p860
sg16
I400
sg17
g13
sg18
g13
sg19
S'/usr/share/fonts/truetype/gentium/GenAI102.ttf'
p861
sg21
g22
sbag7
(g8
g9
NtRp862
(dp863
g12
g29
sg14
S'Liberation Sans Narrow'
p864
sg16
I400
sg17
g179
sg18
g13
sg19
S'/usr/share/fonts/truetype/liberation/LiberationSansNarrow-Italic.ttf'
p865
sg21
g22
sbag7
(g8
g9
NtRp866
(dp867
g12
g13
sg14
S'Droid Sans Fallback'
p868
sg16
I400
sg17
g13
sg18
g13
sg19
S'/usr/share/fonts/truetype/droid/DroidSansFallbackFull.ttf'
p869
sg21
g22
sbag7
(g8
g9
NtRp870
(dp871
g12
g29
sg14
S'GFS Artemisia'
p872
sg16
I400
sg17
g13
sg18
g13
sg19
S'/usr/share/fonts/truetype/artemisia/GFSArtemisiaIt.otf'
p873
sg21
g22
sbag7
(g8
g9
NtRp874
(dp875
g12
g13
sg14
S'STIXSizeThreeSym'
p876
sg16
I400
sg17
g13
sg18
g13
sg19
S'/usr/share/fonts/opentype/stix/STIXSizeThreeSym-Regular.otf'
p877
sg21
g22
sbag7
(g8
g9
NtRp878
(dp879
g12
g13
sg14
S'FreeSans'
p880
sg16
I700
sg17
g13
sg18
g13
sg19
S'/usr/share/fonts/opentype/freefont/FreeSansBold.otf'
p881
sg21
g22
sbag7
(g8
g9
NtRp882
(dp883
g12
g29
sg14
S'DejaVu Serif'
p884
sg16
I400
sg17
g179
sg18
g13
sg19
S'/usr/share/fonts/truetype/ttf-dejavu/DejaVuSerifCondensed-Italic.ttf'
p885
sg21
g22
sbag7
(g8
g9
NtRp886
(dp887
g12
g13
sg14
S'Arial Black'
p888
sg16
I900
sg17
g13
sg18
g13
sg19
S'/usr/share/fonts/truetype/msttcorefonts/Arial_Black.ttf'
p889
sg21
g22
sbag7
(g8
g9
NtRp890
(dp891
g12
g13
sg14
S'GFS Didot'
p892
sg16
I700
sg17
g13
sg18
g13
sg19
S'/usr/share/fonts/truetype/didot/GFSDidotBold.otf'
p893
sg21
g22
sbag7
(g8
g9
NtRp894
(dp895
g12
g13
sg14
S'Webdings'
p896
sg16
I400
sg17
g13
sg18
g13
sg19
S'/usr/share/fonts/truetype/msttcorefonts/Webdings.ttf'
p897
sg21
g22
sbag7
(g8
g9
NtRp898
(dp899
g12
g29
sg14
S'Courier New'
p900
sg16
I700
sg17
g13
sg18
g13
sg19
S'/usr/share/fonts/truetype/msttcorefonts/courbi.ttf'
p901
sg21
g22
sbag7
(g8
g9
NtRp902
(dp903
g12
g13
sg14
S'GentiumAlt'
p904
sg16
I400
sg17
g13
sg18
g13
sg19
S'/usr/share/fonts/truetype/gentium/GenAR102.ttf'
p905
sg21
g22
sbag7
(g8
g9
NtRp906
(dp907
g12
g13
sg14
S'Verdana'
p908
sg16
I700
sg17
g13
sg18
g13
sg19
S'/usr/share/fonts/truetype/msttcorefonts/verdanab.ttf'
p909
sg21
g22
sbag7
(g8
g9
NtRp910
(dp911
g12
g13
sg14
S'Linux Biolinum Capitals O'
p912
sg16
I400
sg17
g13
sg18
g13
sg19
S'/usr/share/fonts/opentype/linux-libertine/LinBiolinum_aS.otf'
p913
sg21
g22
sbag7
(g8
g9
NtRp914
(dp915
g12
g279
sg14
S'FreeSans'
p916
sg16
I700
sg17
g13
sg18
g13
sg19
S'/usr/share/fonts/truetype/freefont/FreeSansBoldOblique.ttf'
p917
sg21
g22
sbag7
(g8
g9
NtRp918
(dp919
g12
g29
sg14
S'Droid Serif'
p920
sg16
I400
sg17
g13
sg18
g13
sg19
S'/usr/share/fonts/truetype/droid/DroidSerif-Italic.ttf'
p921
sg21
g22
sbag7
(g8
g9
NtRp922
(dp923
g12
g13
sg14
S'Kalimati'
p924
sg16
I400
sg17
g13
sg18
g13
sg19
S'/usr/share/fonts/truetype/fonts-deva-extra/kalimati.ttf'
p925
sg21
g22
sbag7
(g8
g9
NtRp926
(dp927
g12
g13
sg14
S'FreeSerif'
p928
sg16
I700
sg17
g13
sg18
g13
sg19
S'/usr/share/fonts/truetype/freefont/FreeSerifBold.ttf'
p929
sg21
g22
sbag7
(g8
g9
NtRp930
(dp931
g12
g279
sg14
S'FreeMono'
p932
sg16
I700
sg17
g13
sg18
g13
sg19
S'/usr/share/fonts/truetype/freefont/FreeMonoBoldOblique.ttf'
p933
sg21
g22
sbag7
(g8
g9
NtRp934
(dp935
g12
g13
sg14
S'Verdana'
p936
sg16
I400
sg17
g13
sg18
g13
sg19
S'/usr/share/fonts/truetype/msttcorefonts/Verdana.ttf'
p937
sg21
g22
sbag7
(g8
g9
NtRp938
(dp939
g12
g13
sg14
S'FreeSans'
p940
sg16
I400
sg17
g13
sg18
g13
sg19
S'/usr/share/fonts/truetype/freefont/FreeSans.ttf'
p941
sg21
g22
sbag7
(g8
g9
NtRp942
(dp943
g12
g13
sg14
S'STIXNonUnicode'
p944
sg16
I700
sg17
g13
sg18
g13
sg19
S'/usr/share/fonts/opentype/stix/STIXNonUnicode-Bold.otf'
p945
sg21
g22
sbag7
(g8
g9
NtRp946
(dp947
g12
g13
sg14
S'MathJax_Size2'
p948
sg16
I400
sg17
g13
sg18
g13
sg19
S'/usr/share/fonts/opentype/mathjax/MathJax_Size2-Regular.otf'
p949
sg21
g22
sbag7
(g8
g9
NtRp950
(dp951
g12
g13
sg14
S'Lohit Bengali'
p952
sg16
I400
sg17
g13
sg18
g13
sg19
S'/usr/share/fonts/truetype/lohit-bengali/Lohit-Bengali.ttf'
p953
sg21
g22
sbag7
(g8
g9
NtRp954
(dp955
g12
g29
sg14
S'Gentium Basic'
p956
sg16
I700
sg17
g13
sg18
g13
sg19
S'/usr/share/fonts/truetype/gentium-basic/GenBasBI.ttf'
p957
sg21
g22
sbag7
(g8
g9
NtRp958
(dp959
g12
g29
sg14
S'Arial'
p960
sg16
I400
sg17
g13
sg18
g13
sg19
S'/usr/share/fonts/truetype/msttcorefonts/ariali.ttf'
p961
sg21
g22
sbag7
(g8
g9
NtRp962
(dp963
g12
g13
sg14
S'MathJax_Size3'
p964
sg16
I400
sg17
g13
sg18
g13
sg19
S'/usr/share/fonts/opentype/mathjax/MathJax_Size3-Regular.otf'
p965
sg21
g22
sbag7
(g8
g9
NtRp966
(dp967
g12
g29
sg14
S'FreeSerif'
p968
sg16
I700
sg17
g13
sg18
g13
sg19
S'/usr/share/fonts/truetype/freefont/FreeSerifBoldItalic.ttf'
p969
sg21
g22
sbag7
(g8
g9
NtRp970
(dp971
g12
g29
sg14
S'Trebuchet MS'
p972
sg16
I700
sg17
g13
sg18
g13
sg19
S'/usr/share/fonts/truetype/msttcorefonts/trebucbi.ttf'
p973
sg21
g22
sbag7
(g8
g9
NtRp974
(dp975
g12
g13
sg14
S'Gentium'
p976
sg16
I400
sg17
g13
sg18
g13
sg19
S'/usr/share/fonts/truetype/gentium/GenR102.ttf'
p977
sg21
g22
sbag7
(g8
g9
NtRp978
(dp979
g12
g13
sg14
S'Liberation Sans Narrow'
p980
sg16
I400
sg17
g179
sg18
g13
sg19
S'/usr/share/fonts/truetype/ttf-liberation/LiberationSansNarrow-Regular.ttf'
p981
sg21
g22
sbag7
(g8
g9
NtRp982
(dp983
g12
g13
sg14
S'Samarkan'
p984
sg16
I400
sg17
g13
sg18
g13
sg19
S'/home/louis/.fonts/SAMARN__.TTF'
p985
sg21
g22
sbag7
(g8
g9
NtRp986
(dp987
g12
g13
sg14
S'Linux Biolinum Outline O'
p988
sg16
I400
sg17
g13
sg18
g13
sg19
S'/usr/share/fonts/opentype/linux-libertine/LinBiolinum_aU.otf'
p989
sg21
g22
sbag7
(g8
g9
NtRp990
(dp991
g12
g13
sg14
S'ProggyCleanTTSZ'
p992
sg16
I400
sg17
g13
sg18
g13
sg19
S'/home/louis/.fonts/ProggyCleanSZ.ttf'
p993
sg21
g22
sbag7
(g8
g9
NtRp994
(dp995
g12
g13
sg14
S'MathJax_WinChrome'
p996
sg16
I400
sg17
g13
sg18
g13
sg19
S'/usr/share/fonts/opentype/mathjax/MathJax_WinChrome-Regular.otf'
p997
sg21
g22
sbag7
(g8
g9
NtRp998
(dp999
g12
g13
sg14
S'STIXSizeThreeSym'
p1000
sg16
I700
sg17
g13
sg18
g13
sg19
S'/usr/share/fonts/opentype/stix/STIXSizeThreeSym-Bold.otf'
p1001
sg21
g22
sbag7
(g8
g9
NtRp1002
(dp1003
g12
g13
sg14
S'MathJax_SansSerif'
p1004
sg16
I700
sg17
g13
sg18
g13
sg19
S'/usr/share/fonts/opentype/mathjax/MathJax_SansSerif-Bold.otf'
p1005
sg21
g22
sbag7
(g8
g9
NtRp1006
(dp1007
g12
g13
sg14
S'Jamrul'
p1008
sg16
I400
sg17
g13
sg18
g13
sg19
S'/usr/share/fonts/truetype/fonts-beng-extra/JamrulNormal.ttf'
p1009
sg21
g22
sbag7
(g8
g9
NtRp1010
(dp1011
g12
g29
sg14
S'Times New Roman'
p1012
sg16
I500
sg17
g13
sg18
g13
sg19
S'/usr/share/fonts/truetype/msttcorefonts/timesi.ttf'
p1013
sg21
g22
sbag7
(g8
g9
NtRp1014
(dp1015
g12
g13
sg14
S'GFS Solomos'
p1016
sg16
I400
sg17
g13
sg18
g13
sg19
S'/usr/share/fonts/truetype/solomos/GFSSolomos.otf'
p1017
sg21
g22
sbag7
(g8
g9
NtRp1018
(dp1019
g12
g29
sg14
S'Times New Roman'
p1020
sg16
I500
sg17
g13
sg18
g13
sg19
S'/usr/share/fonts/truetype/msttcorefonts/Times_New_Roman_Italic.ttf'
p1021
sg21
g22
sbag7
(g8
g9
NtRp1022
(dp1023
g12
g13
sg14
S'Droid Sans Ethiopic'
p1024
sg16
I400
sg17
g13
sg18
g13
sg19
S'/usr/share/fonts/truetype/droid/DroidSansEthiopic-Regular.ttf'
p1025
sg21
g22
sbag7
(g8
g9
NtRp1026
(dp1027
g12
g13
sg14
S'STIXIntegralsSm'
p1028
sg16
I700
sg17
g13
sg18
g13
sg19
S'/usr/share/fonts/opentype/stix/STIXIntegralsSm-Bold.otf'
p1029
sg21
g22
sbag7
(g8
g9
NtRp1030
(dp1031
g12
g13
sg14
S'Liberation Sans'
p1032
sg16
I400
sg17
g13
sg18
g13
sg19
S'/usr/share/fonts/truetype/liberation/LiberationSans-Regular.ttf'
p1033
sg21
g22
sbag7
(g8
g9
NtRp1034
(dp1035
g12
g29
sg14
S'Georgia'
p1036
sg16
I400
sg17
g13
sg18
g13
sg19
S'/usr/share/fonts/truetype/msttcorefonts/Georgia_Italic.ttf'
p1037
sg21
g22
sbag7
(g8
g9
NtRp1038
(dp1039
g12
g279
sg14
S'Bitstream Vera Sans Mono'
p1040
sg16
I700
sg17
g13
sg18
g13
sg19
S'/usr/share/fonts/truetype/ttf-bitstream-vera/VeraMoBI.ttf'
p1041
sg21
g22
sbag7
(g8
g9
NtRp1042
(dp1043
g12
g13
sg14
S'STIXSizeTwoSym'
p1044
sg16
I700
sg17
g13
sg18
g13
sg19
S'/usr/share/fonts/opentype/stix/STIXSizeTwoSym-Bold.otf'
p1045
sg21
g22
sbag7
(g8
g9
NtRp1046
(dp1047
g12
g29
sg14
S'Georgia'
p1048
sg16
I700
sg17
g13
sg18
g13
sg19
S'/usr/share/fonts/truetype/msttcorefonts/georgiaz.ttf'
p1049
sg21
g22
sbag7
(g8
g9
NtRp1050
(dp1051
g12
g29
sg14
S'Courier New'
p1052
sg16
I700
sg17
g13
sg18
g13
sg19
S'/usr/share/fonts/truetype/msttcorefonts/Courier_New_Bold_Italic.ttf'
p1053
sg21
g22
sbag7
(g8
g9
NtRp1054
(dp1055
g12
g13
sg14
S'MathJax_Main'
p1056
sg16
I700
sg17
g13
sg18
g13
sg19
S'/usr/share/fonts/opentype/mathjax/MathJax_Main-Bold.otf'
p1057
sg21
g22
sbag7
(g8
g9
NtRp1058
(dp1059
g12
g13
sg14
S'Comic Sans MS'
p1060
sg16
I400
sg17
g13
sg18
g13
sg19
S'/usr/share/fonts/truetype/msttcorefonts/comic.ttf'
p1061
sg21
g22
sbag7
(g8
g9
NtRp1062
(dp1063
g12
g13
sg14
S'GFS Neohellenic'
p1064
sg16
I400
sg17
g13
sg18
g13
sg19
S'/usr/share/fonts/truetype/neohellenic/GFSNeohellenic.otf'
p1065
sg21
g22
sbag7
(g8
g9
NtRp1066
(dp1067
g12
g13
sg14
S'STIXGeneral'
p1068
sg16
I400
sg17
g13
sg18
g13
sg19
S'/usr/share/fonts/opentype/stix/STIXGeneral-Regular.otf'
p1069
sg21
g22
sbag7
(g8
g9
NtRp1070
(dp1071
g12
g13
sg14
S'Arial'
p1072
sg16
I700
sg17
g13
sg18
g13
sg19
S'/usr/share/fonts/truetype/msttcorefonts/arialbd.ttf'
p1073
sg21
g22
sbag7
(g8
g9
NtRp1074
(dp1075
g12
g13
sg14
S'Junicode'
p1076
sg16
I700
sg17
g13
sg18
g13
sg19
S'/usr/share/fonts/truetype/junicode/Junicode-Bold.ttf'
p1077
sg21
g22
sbag7
(g8
g9
NtRp1078
(dp1079
g12
g29
sg14
S'Linux Biolinum Outline O'
p1080
sg16
I400
sg17
g13
sg18
g13
sg19
S'/usr/share/fonts/opentype/linux-libertine/LinBiolinum_aUI.otf'
p1081
sg21
g22
sbag7
(g8
g9
NtRp1082
(dp1083
g12
g13
sg14
S'Times New Roman'
p1084
sg16
I700
sg17
g13
sg18
g13
sg19
S'/usr/share/fonts/truetype/msttcorefonts/timesbd.ttf'
p1085
sg21
g22
sbag7
(g8
g9
NtRp1086
(dp1087
g12
g13
sg14
S'Linux Biolinum Keyboard O'
p1088
sg16
I400
sg17
g13
sg18
g13
sg19
S'/usr/share/fonts/opentype/linux-libertine/LinBiolinum_K.otf'
p1089
sg21
g22
sbag7
(g8
g9
NtRp1090
(dp1091
g12
g13
sg14
S'Trebuchet MS'
p1092
sg16
I700
sg17
g13
sg18
g13
sg19
S'/usr/share/fonts/truetype/msttcorefonts/Trebuchet_MS_Bold.ttf'
p1093
sg21
g22
sbag7
(g8
g9
NtRp1094
(dp1095
g12
g29
sg14
S'DejaVu Serif'
p1096
sg16
I400
sg17
g13
sg18
g13
sg19
S'/usr/share/fonts/truetype/ttf-dejavu/DejaVuSerif-Italic.ttf'
p1097
sg21
g22
sbag7
(g8
g9
NtRp1098
(dp1099
g12
g13
sg14
S'ProggyCleanTT'
p1100
sg16
I400
sg17
g13
sg18
g13
sg19
S'/home/louis/.fonts/ProggyClean.ttf'
p1101
sg21
g22
sbag7
(g8
g9
NtRp1102
(dp1103
g12
g13
sg14
S'Droid Sans Thai'
p1104
sg16
I400
sg17
g13
sg18
g13
sg19
S'/usr/share/fonts/truetype/droid/DroidSansThai.ttf'
p1105
sg21
g22
sbag7
(g8
g9
NtRp1106
(dp1107
g12
g29
sg14
S'GFS Didot'
p1108
sg16
I400
sg17
g13
sg18
g13
sg19
S'/usr/share/fonts/truetype/didot/GFSDidotItalic.otf'
p1109
sg21
g22
sbag7
(g8
g9
NtRp1110
(dp1111
g12
g279
sg14
S'FreeMono'
p1112
sg16
I400
sg17
g13
sg18
g13
sg19
S'/usr/share/fonts/truetype/freefont/FreeMonoOblique.ttf'
p1113
sg21
g22
sbag7
(g8
g9
NtRp1114
(dp1115
g12
g13
sg14
S'MathJax_Size1'
p1116
sg16
I400
sg17
g13
sg18
g13
sg19
S'/usr/share/fonts/opentype/mathjax/MathJax_Size1-Regular.otf'
p1117
sg21
g22
sbag7
(g8
g9
NtRp1118
(dp1119
g12
g29
sg14
S'STIXNonUnicode'
p1120
sg16
I700
sg17
g13
sg18
g13
sg19
S'/usr/share/fonts/opentype/stix/STIXNonUnicode-BoldItalic.otf'
p1121
sg21
g22
sbag7
(g8
g9
NtRp1122
(dp1123
g12
g13
sg14
S'Droid Sans Hebrew'
p1124
sg16
I400
sg17
g13
sg18
g13
sg19
S'/usr/share/fonts/truetype/droid/DroidSansHebrew-Regular.ttf'
p1125
sg21
g22
sbag7
(g8
g9
NtRp1126
(dp1127
g12
g13
sg14
S'Chandas'
p1128
sg16
I400
sg17
g13
sg18
g13
sg19
S'/usr/share/fonts/truetype/fonts-deva-extra/chandas1-2.ttf'
p1129
sg21
g22
sbag7
(g8
g9
NtRp1130
(dp1131
g12
g13
sg14
S'STIXSizeTwoSym'
p1132
sg16
I400
sg17
g13
sg18
g13
sg19
S'/usr/share/fonts/opentype/stix/STIXSizeTwoSym-Regular.otf'
p1133
sg21
g22
sbag7
(g8
g9
NtRp1134
(dp1135
g12
g13
sg14
S'Droid Sans'
p1136
sg16
I700
sg17
g13
sg18
g13
sg19
S'/usr/share/fonts/truetype/droid/DroidSans-Bold.ttf'
p1137
sg21
g22
sbag7
(g8
g9
NtRp1138
(dp1139
g12
g13
sg14
S'MathJax_Script'
p1140
sg16
I400
sg17
g13
sg18
g13
sg19
S'/usr/share/fonts/opentype/mathjax/MathJax_Script-Regular.otf'
p1141
sg21
g22
sbag7
(g8
g9
NtRp1142
(dp1143
g12
g13
sg14
S'STIXSizeFourSym'
p1144
sg16
I700
sg17
g13
sg18
g13
sg19
S'/usr/share/fonts/opentype/stix/STIXSizeFourSym-Bold.otf'
p1145
sg21
g22
sbag7
(g8
g9
NtRp1146
(dp1147
g12
g279
sg14
S'DejaVu Sans Mono'
p1148
sg16
I400
sg17
g13
sg18
g13
sg19
S'/usr/share/fonts/truetype/ttf-dejavu/DejaVuSansMono-Oblique.ttf'
p1149
sg21
g22
sbag7
(g8
g9
NtRp1150
(dp1151
g12
g29
sg14
S'Trebuchet MS'
p1152
sg16
I400
sg17
g13
sg18
g13
sg19
S'/usr/share/fonts/truetype/msttcorefonts/trebucit.ttf'
p1153
sg21
g22
sbag7
(g8
g9
NtRp1154
(dp1155
g12
g13
sg14
S'STIXSizeOneSym'
p1156
sg16
I700
sg17
g13
sg18
g13
sg19
S'/usr/share/fonts/opentype/stix/STIXSizeOneSym-Bold.otf'
p1157
sg21
g22
sbag7
(g8
g9
NtRp1158
(dp1159
g12
g29
sg14
S'Times New Roman'
p1160
sg16
I700
sg17
g13
sg18
g13
sg19
S'/usr/share/fonts/truetype/msttcorefonts/timesbi.ttf'
p1161
sg21
g22
sbag7
(g8
g9
NtRp1162
(dp1163
g12
g13
sg14
S'STIXVariants'
p1164
sg16
I700
sg17
g13
sg18
g13
sg19
S'/usr/share/fonts/opentype/stix/STIXVariants-Bold.otf'
p1165
sg21
g22
sbag7
(g8
g9
NtRp1166
(dp1167
g12
g13
sg14
S'Sahadeva'
p1168
sg16
I400
sg17
g13
sg18
g13
sg19
S'/usr/share/fonts/truetype/fonts-sahadeva/sahadeva.ttf'
p1169
sg21
g22
sbag7
(g8
g9
NtRp1170
(dp1171
g12
g29
sg14
S'Linux Biolinum Slanted O'
p1172
sg16
I400
sg17
g13
sg18
g13
sg19
S'/usr/share/fonts/opentype/linux-libertine/LinBiolinum_aRL.otf'
p1173
sg21
g22
sbag7
(g8
g9
NtRp1174
(dp1175
g12
g13
sg14
S'Droid Sans Armenian'
p1176
sg16
I400
sg17
g13
sg18
g13
sg19
S'/usr/share/fonts/truetype/droid/DroidSansArmenian.ttf'
p1177
sg21
g22
sbag7
(g8
g9
NtRp1178
(dp1179
g12
g29
sg14
S'Linux Biolinum O'
p1180
sg16
I400
sg17
g13
sg18
g13
sg19
S'/usr/share/fonts/opentype/linux-libertine/LinBiolinum_RI.otf'
p1181
sg21
g22
sbag7
(g8
g9
NtRp1182
(dp1183
g12
g13
sg14
S'Comic Sans MS'
p1184
sg16
I400
sg17
g13
sg18
g13
sg19
S'/usr/share/fonts/truetype/msttcorefonts/Comic_Sans_MS.ttf'
p1185
sg21
g22
sbag7
(g8
g9
NtRp1186
(dp1187
g12
g279
sg14
S'Bitstream Vera Sans Mono'
p1188
sg16
I400
sg17
g13
sg18
g13
sg19
S'/usr/share/fonts/truetype/ttf-bitstream-vera/VeraMoIt.ttf'
p1189
sg21
g22
sbag7
(g8
g9
NtRp1190
(dp1191
g12
g13
sg14
S'STIXIntegralsSm'
p1192
sg16
I400
sg17
g13
sg18
g13
sg19
S'/usr/share/fonts/opentype/stix/STIXIntegralsSm-Regular.otf'
p1193
sg21
g22
sbag7
(g8
g9
NtRp1194
(dp1195
g12
g29
sg14
S'Arial'
p1196
sg16
I700
sg17
g13
sg18
g13
sg19
S'/usr/share/fonts/truetype/msttcorefonts/Arial_Bold_Italic.ttf'
p1197
sg21
g22
sbag7
(g8
g9
NtRp1198
(dp1199
g12
g13
sg14
S'STIXIntegralsD'
p1200
sg16
I400
sg17
g13
sg18
g13
sg19
S'/usr/share/fonts/opentype/stix/STIXIntegralsD-Regular.otf'
p1201
sg21
g22
sbag7
(g8
g9
NtRp1202
(dp1203
g12
g13
sg14
S'ProggyCleanTT CE'
p1204
sg16
I400
sg17
g13
sg18
g13
sg19
S'/home/louis/.fonts/ProggyCleanCE.ttf'
p1205
sg21
g22
sbag7
(g8
g9
NtRp1206
(dp1207
g12
g13
sg14
S'STIXSizeOneSym'
p1208
sg16
I400
sg17
g13
sg18
g13
sg19
S'/usr/share/fonts/opentype/stix/STIXSizeOneSym-Regular.otf'
p1209
sg21
g22
sbag7
(g8
g9
NtRp1210
(dp1211
g12
g13
sg14
S'Arial'
p1212
sg16
I400
sg17
g13
sg18
g13
sg19
S'/usr/share/fonts/truetype/msttcorefonts/arial.ttf'
p1213
sg21
g22
sbag7
(g8
g9
NtRp1214
(dp1215
g12
g29
sg14
S'MathJax_SansSerif'
p1216
sg16
I400
sg17
g13
sg18
g13
sg19
S'/usr/share/fonts/opentype/mathjax/MathJax_SansSerif-Italic.otf'
p1217
sg21
g22
sbag7
(g8
g9
NtRp1218
(dp1219
g12
g13
sg14
S'Linux Biolinum Shadow O'
p1220
sg16
I700
sg17
g13
sg18
g13
sg19
S'/usr/share/fonts/opentype/linux-libertine/LinBiolinum_aWB.otf'
p1221
sg21
g22
sbag7
(g8
g9
NtRp1222
(dp1223
g12
g13
sg14
S'Impact'
p1224
sg16
I400
sg17
g13
sg18
g13
sg19
S'/usr/share/fonts/truetype/msttcorefonts/impact.ttf'
p1225
sg21
g22
sbag7
(g8
g9
NtRp1226
(dp1227
g12
g13
sg14
S'STIXIntegralsUpD'
p1228
sg16
I700
sg17
g13
sg18
g13
sg19
S'/usr/share/fonts/opentype/stix/STIXIntegralsUpD-Bold.otf'
p1229
sg21
g22
sbag7
(g8
g9
NtRp1230
(dp1231
g12
g13
sg14
S'STIXIntegralsD'
p1232
sg16
I700
sg17
g13
sg18
g13
sg19
S'/usr/share/fonts/opentype/stix/STIXIntegralsD-Bold.otf'
p1233
sg21
g22
sbag7
(g8
g9
NtRp1234
(dp1235
g12
g29
sg14
S'Linux Biolinum Slanted O'
p1236
sg16
I700
sg17
g13
sg18
g13
sg19
S'/usr/share/fonts/opentype/linux-libertine/LinBiolinum_aBL.otf'
p1237
sg21
g22
sbag7
(g8
g9
NtRp1238
(dp1239
g12
g13
sg14
S'GFS Neohellenic'
p1240
sg16
I700
sg17
g13
sg18
g13
sg19
S'/usr/share/fonts/truetype/neohellenic/GFSNeohellenicBold.otf'
p1241
sg21
g22
sbag7
(g8
g9
NtRp1242
(dp1243
g12
g13
sg14
S'Verdana'
p1244
sg16
I700
sg17
g13
sg18
g13
sg19
S'/usr/share/fonts/truetype/msttcorefonts/Verdana_Bold.ttf'
p1245
sg21
g22
sbag7
(g8
g9
NtRp1246
(dp1247
g12
g13
sg14
S'Droid Sans Japanese'
p1248
sg16
I400
sg17
g13
sg18
g13
sg19
S'/usr/share/fonts/truetype/droid/DroidSansJapanese.ttf'
p1249
sg21
g22
sbag7
(g8
g9
NtRp1250
(dp1251
g12
g29
sg14
S'Trebuchet MS'
p1252
sg16
I700
sg17
g13
sg18
g13
sg19
S'/usr/share/fonts/truetype/msttcorefonts/Trebuchet_MS_Bold_Italic.ttf'
p1253
sg21
g22
sbag7
(g8
g9
NtRp1254
(dp1255
g12
g29
sg14
S'MathJax_Math'
p1256
sg16
I400
sg17
g13
sg18
g13
sg19
S'/usr/share/fonts/opentype/mathjax/MathJax_Math-Italic.otf'
p1257
sg21
g22
sbag7
(g8
g9
NtRp1258
(dp1259
g12
g13
sg14
S'GFS Complutum'
p1260
sg16
I400
sg17
g13
sg18
g13
sg19
S'/usr/share/fonts/truetype/complutum/GFSPolyglot.otf'
p1261
sg21
g22
sbag7
(g8
g9
NtRp1262
(dp1263
g12
g13
sg14
S'Likhan'
p1264
sg16
I400
sg17
g13
sg18
g13
sg19
S'/usr/share/fonts/truetype/fonts-beng-extra/LikhanNormal.ttf'
p1265
sg21
g22
sbag7
(g8
g9
NtRp1266
(dp1267
g12
g13
sg14
S'Bitstream Vera Sans Mono'
p1268
sg16
I700
sg17
g13
sg18
g13
sg19
S'/usr/share/fonts/truetype/ttf-bitstream-vera/VeraMoBd.ttf'
p1269
sg21
g22
sbag7
(g8
g9
NtRp1270
(dp1271
g12
g13
sg14
S'STIXSizeFourSym'
p1272
sg16
I400
sg17
g13
sg18
g13
sg19
S'/usr/share/fonts/opentype/stix/STIXSizeFourSym-Regular.otf'
p1273
sg21
g22
sbag7
(g8
g9
NtRp1274
(dp1275
g12
g13
sg14
S'FreeMono'
p1276
sg16
I400
sg17
g13
sg18
g13
sg19
S'/usr/share/fonts/truetype/freefont/FreeMono.ttf'
p1277
sg21
g22
sbag7
(g8
g9
NtRp1278
(dp1279
g12
g13
sg14
S'Trebuchet MS'
p1280
sg16
I700
sg17
g13
sg18
g13
sg19
S'/usr/share/fonts/truetype/msttcorefonts/trebucbd.ttf'
p1281
sg21
g22
sbag7
(g8
g9
NtRp1282
(dp1283
g12
g29
sg14
S'Linux Libertine O'
p1284
sg16
I700
sg17
g13
sg18
g13
sg19
S'/usr/share/fonts/opentype/linux-libertine/LinLibertine_RBI.otf'
p1285
sg21
g22
sbag7
(g8
g9
NtRp1286
(dp1287
g12
g13
sg14
S'Courier New'
p1288
sg16
I700
sg17
g13
sg18
g13
sg19
S'/usr/share/fonts/truetype/msttcorefonts/Courier_New_Bold.ttf'
p1289
sg21
g22
sbag7
(g8
g9
NtRp1290
(dp1291
g12
g13
sg14
S'Times New Roman'
p1292
sg16
I700
sg17
g13
sg18
g13
sg19
S'/usr/share/fonts/truetype/msttcorefonts/Times_New_Roman_Bold.ttf'
p1293
sg21
g22
sbag7
(g8
g9
NtRp1294
(dp1295
g12
g13
sg14
S'FreeMono'
p1296
sg16
I700
sg17
g13
sg18
g13
sg19
S'/usr/share/fonts/opentype/freefont/FreeMonoBold.otf'
p1297
sg21
g22
sbag7
(g8
g9
NtRp1298
(dp1299
g12
g29
sg14
S'FreeSerif'
p1300
sg16
I400
sg17
g13
sg18
g13
sg19
S'/usr/share/fonts/truetype/freefont/FreeSerifItalic.ttf'
p1301
sg21
g22
sbag7
(g8
g9
NtRp1302
(dp1303
g12
g13
sg14
S'STIXIntegralsUpSm'
p1304
sg16
I700
sg17
g13
sg18
g13
sg19
S'/usr/share/fonts/opentype/stix/STIXIntegralsUpSm-Bold.otf'
p1305
sg21
g22
sbag7
(g8
g9
NtRp1306
(dp1307
g12
g29
sg14
S'GFS Neohellenic'
p1308
sg16
I700
sg17
g13
sg18
g13
sg19
S'/usr/share/fonts/truetype/neohellenic/GFSNeohellenicBoldIt.otf'
p1309
sg21
g22
sbag7
(g8
g9
NtRp1310
(dp1311
g12
g29
sg14
S'MathJax_Math'
p1312
sg16
I700
sg17
g13
sg18
g13
sg19
S'/usr/share/fonts/opentype/mathjax/MathJax_Math-BoldItalic.otf'
p1313
sg21
g22
sbag7
(g8
g9
NtRp1314
(dp1315
g12
g13
sg14
S'Bitstream Vera Serif'
p1316
sg16
I400
sg17
g13
sg18
g13
sg19
S'/usr/share/fonts/truetype/ttf-bitstream-vera/VeraSe.ttf'
p1317
sg21
g22
sbag7
(g8
g9
NtRp1318
(dp1319
g12
g13
sg14
S'Linux Libertine Initials O'
p1320
sg16
I400
sg17
g13
sg18
g13
sg19
S'/usr/share/fonts/opentype/linux-libertine/LinLibertine_I.otf'
p1321
sg21
g22
sbag7
(g8
g9
NtRp1322
(dp1323
g12
g13
sg14
S'DejaVu Serif'
p1324
sg16
I400
sg17
g179
sg18
g13
sg19
S'/usr/share/fonts/truetype/ttf-dejavu/DejaVuSerifCondensed.ttf'
p1325
sg21
g22
sbag7
(g8
g9
NtRp1326
(dp1327
g12
g13
sg14
S'Lohit Assamese'
p1328
sg16
I400
sg17
g13
sg18
g13
sg19
S'/usr/share/fonts/truetype/lohit-assamese/Lohit-Assamese.ttf'
p1329
sg21
g22
sbag7
(g8
g9
NtRp1330
(dp1331
g12
g29
sg14
S'Gentium Book Basic'
p1332
sg16
I400
sg17
g13
sg18
g13
sg19
S'/usr/share/fonts/truetype/gentium-basic/GenBkBasI.ttf'
p1333
sg21
g22
sbag7
(g8
g9
NtRp1334
(dp1335
g12
g13
sg14
S'Droid Arabic Naskh'
p1336
sg16
I400
sg17
g13
sg18
g13
sg19
S'/usr/share/fonts/truetype/droid/DroidNaskh-Regular.ttf'
p1337
sg21
g22
sbasS'defaultFamily'
p1338
(dp1339
S'afm'
p1340
S'Helvetica'
p1341
sS'ttf'
p1342
S'Bitstream Vera Sans'
p1343
ssS'ttffiles'
p1344
(lp1345
S'/usr/share/matplotlib/mpl-data/fonts/ttf/cmb10.ttf'
p1346
aS'/usr/share/matplotlib/mpl-data/fonts/ttf/cmex10.ttf'
p1347
aS'/usr/share/matplotlib/mpl-data/fonts/ttf/STIXNonUniIta.ttf'
p1348
aS'/usr/share/matplotlib/mpl-data/fonts/ttf/STIXNonUni.ttf'
p1349
aS'/usr/share/matplotlib/mpl-data/fonts/ttf/STIXSizThreeSymReg.ttf'
p1350
aS'/usr/share/matplotlib/mpl-data/fonts/ttf/STIXSizTwoSymBol.ttf'
p1351
aS'/usr/share/matplotlib/mpl-data/fonts/ttf/cmtt10.ttf'
p1352
aS'/usr/share/matplotlib/mpl-data/fonts/ttf/STIXGeneral.ttf'
p1353
aS'/usr/share/matplotlib/mpl-data/fonts/ttf/STIXSizThreeSymBol.ttf'
p1354
aS'/usr/share/matplotlib/mpl-data/fonts/ttf/STIXSizFiveSymReg.ttf'
p1355
aS'/usr/share/matplotlib/mpl-data/fonts/ttf/STIXSizOneSymBol.ttf'
p1356
aS'/usr/share/matplotlib/mpl-data/fonts/ttf/STIXGeneralBol.ttf'
p1357
aS'/usr/share/matplotlib/mpl-data/fonts/ttf/cmr10.ttf'
p1358
aS'/usr/share/matplotlib/mpl-data/fonts/ttf/STIXSizTwoSymReg.ttf'
p1359
aS'/usr/share/matplotlib/mpl-data/fonts/ttf/STIXSizOneSymReg.ttf'
p1360
aS'/usr/share/matplotlib/mpl-data/fonts/ttf/cmsy10.ttf'
p1361
aS'/usr/share/matplotlib/mpl-data/fonts/ttf/STIXNonUniBolIta.ttf'
p1362
aS'/usr/share/matplotlib/mpl-data/fonts/ttf/cmss10.ttf'
p1363
aS'/usr/share/matplotlib/mpl-data/fonts/ttf/STIXSizFourSymBol.ttf'
p1364
aS'/usr/share/matplotlib/mpl-data/fonts/ttf/STIXGeneralItalic.ttf'
p1365
aS'/usr/share/matplotlib/mpl-data/fonts/ttf/cmmi10.ttf'
p1366
aS'/usr/share/matplotlib/mpl-data/fonts/ttf/STIXNonUniBol.ttf'
p1367
aS'/usr/share/matplotlib/mpl-data/fonts/ttf/STIXGeneralBolIta.ttf'
p1368
aS'/usr/share/matplotlib/mpl-data/fonts/ttf/STIXSizFourSymReg.ttf'
p1369
aS'/home/louis/.fonts/ProggySmall.ttf'
p1370
aS'/usr/share/fonts/opentype/stix/STIXIntegralsUp-Regular.otf'
p1371
aS'/usr/share/fonts/truetype/msttcorefonts/webdings.ttf'
p1372
aS'/usr/share/fonts/opentype/stix/STIXGeneral-Italic.otf'
p1373
aS'/usr/share/fonts/truetype/droid/DroidSansEthiopic-Bold.ttf'
p1374
aS'/usr/share/fonts/truetype/lyx/cmr10.ttf'
p1375
aS'/usr/share/fonts/truetype/ttf-dejavu/DejaVuSerif-Bold.ttf'
p1376
aS'/usr/share/fonts/opentype/linux-libertine/LinLibertine_aSI.otf'
p1377
aS'/usr/share/fonts/truetype/ttf-liberation/LiberationSans-Bold.ttf'
p1378
aS'/usr/share/fonts/opentype/linux-libertine/LinBiolinum_aW.otf'
p1379
aS'/usr/share/fonts/opentype/linux-libertine/LinLibertine_RB.otf'
p1380
aS'/usr/share/fonts/truetype/droid/DroidSansHebrew-Bold.ttf'
p1381
aS'/usr/share/fonts/truetype/msttcorefonts/Times_New_Roman.ttf'
p1382
aS'/usr/share/fonts/truetype/msttcorefonts/verdanai.ttf'
p1383
aS'/usr/share/fonts/truetype/inconsolata/Inconsolata.otf'
p1384
aS'/usr/share/fonts/truetype/freefont/FreeSerif.ttf'
p1385
aS'/usr/share/fonts/truetype/ttf-dejavu/DejaVuSansCondensed.ttf'
p1386
aS'/usr/share/fonts/opentype/stix/STIXIntegralsUpSm-Regular.otf'
p1387
aS'/usr/share/fonts/truetype/ttf-liberation/LiberationMono-Bold.ttf'
p1388
aS'/usr/share/fonts/truetype/gentium-basic/GenBasI.ttf'
p1389
aS'/usr/share/fonts/truetype/junicode/Junicode-Italic.ttf'
p1390
aS'/usr/share/fonts/opentype/stix/STIXSizeFiveSym-Regular.otf'
p1391
aS'/usr/share/fonts/truetype/droid/DroidSerif-BoldItalic.ttf'
p1392
aS'/usr/share/fonts/truetype/junicode/Junicode.ttf'
p1393
aS'/usr/share/fonts/truetype/ttf-dejavu/DejaVuSansMono.ttf'
p1394
aS'/usr/share/fonts/truetype/droid/DroidSerif-Bold.ttf'
p1395
aS'/usr/share/fonts/truetype/gentium-basic/GenBkBasBI.ttf'
p1396
aS'/usr/share/fonts/truetype/fonts-japanese-gothic.ttf'
p1397
aS'/usr/share/fonts/truetype/gentium-basic/GenBkBasR.ttf'
p1398
aS'/usr/share/fonts/truetype/msttcorefonts/Georgia_Bold.ttf'
p1399
aS'/usr/share/fonts/truetype/msttcorefonts/ariblk.ttf'
p1400
aS'/usr/share/fonts/opentype/linux-libertine/LinLibertine_RZ.otf'
p1401
aS'/usr/share/fonts/truetype/asana-math/Asana-Math.otf'
p1402
aS'/usr/share/fonts/truetype/msttcorefonts/verdana.ttf'
p1403
aS'/usr/share/fonts/truetype/ttf-liberation/LiberationMono-Italic.ttf'
p1404
aS'/usr/share/fonts/truetype/lyx/msam10.ttf'
p1405
aS'/usr/share/fonts/opentype/mathjax/MathJax_Main-Italic.otf'
p1406
aS'/usr/share/fonts/truetype/didot/GFSDidotBoldItalic.otf'
p1407
aS'/usr/share/fonts/truetype/msttcorefonts/georgiab.ttf'
p1408
aS'/usr/share/fonts/truetype/ttf-dejavu/DejaVuSerif.ttf'
p1409
aS'/usr/share/fonts/truetype/liberation/LiberationSansNarrow-Bold.ttf'
p1410
aS'/usr/share/fonts/truetype/freefont/FreeSansOblique.ttf'
p1411
aS'/usr/share/fonts/truetype/msttcorefonts/Comic_Sans_MS_Bold.ttf'
p1412
aS'/usr/share/fonts/truetype/gentium-basic/GenBasB.ttf'
p1413
aS'/usr/share/fonts/truetype/liberation/LiberationMono-Regular.ttf'
p1414
aS'/usr/share/fonts/opentype/linux-libertine/LinLibertine_R.otf'
p1415
aS'/usr/share/fonts/truetype/liberation/LiberationSans-Bold.ttf'
p1416
aS'/usr/share/fonts/truetype/msttcorefonts/courbd.ttf'
p1417
aS'/usr/share/fonts/truetype/lohit-devanagari/Lohit-Devanagari.ttf'
p1418
aS'/usr/share/fonts/truetype/fonts-beng-extra/mitra.ttf'
p1419
aS'/usr/share/fonts/truetype/lyx/rsfs10.ttf'
p1420
aS'/usr/share/fonts/truetype/msttcorefonts/Georgia_Bold_Italic.ttf'
p1421
aS'/usr/share/fonts/truetype/ttf-bitstream-vera/VeraSeBd.ttf'
p1422
aS'/usr/share/fonts/truetype/ttf-dejavu/DejaVuSans-Oblique.ttf'
p1423
aS'/usr/share/fonts/truetype/ttf-marvosym/marvosym.ttf'
p1424
aS'/usr/share/fonts/truetype/lyx/wasy10.ttf'
p1425
aS'/usr/share/fonts/truetype/ttf-liberation/LiberationSerif-Bold.ttf'
p1426
aS'/usr/share/fonts/opentype/mathjax/MathJax_Typewriter-Regular.otf'
p1427
aS'/usr/share/fonts/opentype/stix/STIXVariants-Regular.otf'
p1428
aS'/usr/share/fonts/opentype/stix/STIXGeneral-Bold.otf'
p1429
aS'/usr/share/fonts/truetype/msttcorefonts/Times_New_Roman_Bold_Italic.ttf'
p1430
aS'/usr/share/fonts/truetype/gentium-basic/GenBkBasB.ttf'
p1431
aS'/usr/share/fonts/truetype/ttf-dejavu/DejaVuSans-BoldOblique.ttf'
p1432
aS'/usr/share/fonts/opentype/mathjax/MathJax_Main-Regular.otf'
p1433
aS'/usr/share/fonts/truetype/ttf-liberation/LiberationSans-Italic.ttf'
p1434
aS'/usr/share/fonts/opentype/linux-libertine/LinLibertine_aSZI.otf'
p1435
aS'/usr/share/fonts/truetype/msttcorefonts/Impact.ttf'
p1436
aS'/usr/share/fonts/truetype/ttf-dejavu/DejaVuSansCondensed-BoldOblique.ttf'
p1437
aS'/usr/share/fonts/opentype/mathjax/MathJax_Size4-Regular.otf'
p1438
aS'/usr/share/fonts/truetype/msttcorefonts/Georgia.ttf'
p1439
aS'/usr/share/fonts/truetype/fonts-deva-extra/Sarai_07.ttf'
p1440
aS'/usr/share/fonts/truetype/artemisia/GFSArtemisiaBold.otf'
p1441
aS'/usr/share/fonts/truetype/gentium-basic/GenBasR.ttf'
p1442
aS'/usr/share/fonts/truetype/droid/DroidSerif-Regular.ttf'
p1443
aS'/usr/share/fonts/truetype/liberation/LiberationMono-Italic.ttf'
p1444
aS'/usr/share/fonts/truetype/comfortaa/Comfortaa-Light.ttf'
p1445
aS'/usr/share/fonts/truetype/lyx/msbm10.ttf'
p1446
aS'/usr/share/fonts/truetype/liberation/LiberationSerif-BoldItalic.ttf'
p1447
aS'/usr/share/fonts/opentype/linux-libertine/LinBiolinum_aWI.otf'
p1448
aS'/usr/share/fonts/truetype/msttcorefonts/andalemo.ttf'
p1449
aS'/usr/share/fonts/truetype/ttf-dejavu/DejaVuSans.ttf'
p1450
aS'/usr/share/fonts/truetype/msttcorefonts/arialbi.ttf'
p1451
aS'/usr/share/fonts/opentype/mathjax/MathJax_Caligraphic-Bold.otf'
p1452
aS'/usr/share/fonts/truetype/liberation/LiberationSerif-Bold.ttf'
p1453
aS'/usr/share/fonts/truetype/liberation/LiberationSans-Italic.ttf'
p1454
aS'/usr/share/fonts/opentype/stix/STIXGeneral-BoldItalic.otf'
p1455
aS'/usr/share/fonts/opentype/linux-libertine/LinLibertine_DR.otf'
p1456
aS'/usr/share/fonts/truetype/ttf-dejavu/DejaVuSansMono-Bold.ttf'
p1457
aS'/usr/share/fonts/opentype/stix/STIXIntegralsUp-Bold.otf'
p1458
aS'/usr/share/fonts/opentype/linux-libertine/LinLibertine_aRL.otf'
p1459
aS'/usr/share/fonts/truetype/msttcorefonts/Courier_New_Italic.ttf'
p1460
aS'/usr/share/fonts/opentype/freefont/FreeSansBoldOblique.otf'
p1461
aS'/usr/share/fonts/truetype/ttf-dejavu/DejaVuSansCondensed-Oblique.ttf'
p1462
aS'/usr/share/fonts/truetype/msttcorefonts/cour.ttf'
p1463
aS'/usr/share/fonts/truetype/ttf-dejavu/DejaVuSerifCondensed-Bold.ttf'
p1464
aS'/usr/share/fonts/opentype/linux-libertine/LinBiolinum_RB.otf'
p1465
aS'/usr/share/fonts/truetype/ttf-liberation/LiberationSerif-Italic.ttf'
p1466
aS'/usr/share/fonts/truetype/ttf-bitstream-vera/VeraBI.ttf'
p1467
aS'/usr/share/fonts/opentype/freefont/FreeMonoOblique.otf'
p1468
aS'/usr/share/fonts/opentype/stix/STIXNonUnicode-Regular.otf'
p1469
aS'/usr/share/fonts/truetype/lyx/eufm10.ttf'
p1470
aS'/usr/share/fonts/truetype/droid/DroidSans.ttf'
p1471
aS'/usr/share/fonts/truetype/ttf-dejavu/DejaVuSerif-BoldItalic.ttf'
p1472
aS'/usr/share/fonts/truetype/lyx/esint10.ttf'
p1473
aS'/usr/share/fonts/truetype/msttcorefonts/Trebuchet_MS.ttf'
p1474
aS'/usr/share/fonts/truetype/neohellenic/GFSNeohellenicIt.otf'
p1475
aS'/usr/share/fonts/opentype/stix/STIXIntegralsUpD-Regular.otf'
p1476
aS'/home/louis/.fonts/ProggyTinySZ.ttf'
p1477
aS'/usr/share/fonts/opentype/linux-libertine/LinLibertine_aDRL.otf'
p1478
aS'/usr/share/fonts/truetype/vlgothic/VL-PGothic-Regular.ttf'
p1479
aS'/usr/share/fonts/truetype/ttf-liberation/LiberationSansNarrow-BoldItalic.ttf'
p1480
aS'/usr/share/fonts/truetype/junicode/Junicode-BoldItalic.ttf'
p1481
aS'/usr/share/fonts/truetype/droid/DroidNaskh-Bold.ttf'
p1482
aS'/usr/share/fonts/opentype/linux-libertine/LinBiolinum_aSI.otf'
p1483
aS'/usr/share/fonts/opentype/linux-libertine/LinLibertine_aSBI.otf'
p1484
aS'/usr/share/fonts/opentype/freefont/FreeMonoBoldOblique.otf'
p1485
aS'/usr/share/fonts/truetype/msttcorefonts/Trebuchet_MS_Italic.ttf'
p1486
aS'/usr/share/fonts/opentype/linux-libertine/LinLibertine_aDRS.otf'
p1487
aS'/usr/share/fonts/opentype/freefont/FreeSansOblique.otf'
p1488
aS'/usr/share/fonts/truetype/msttcorefonts/comicbd.ttf'
p1489
aS'/usr/share/fonts/opentype/mathjax/MathJax_AMS-Regular.otf'
p1490
aS'/usr/share/fonts/truetype/fonts-beng-extra/ani.ttf'
p1491
aS'/usr/share/fonts/truetype/msttcorefonts/Arial.ttf'
p1492
aS'/usr/share/fonts/opentype/linux-libertine/LinLibertine_aS.otf'
p1493
aS'/usr/share/fonts/opentype/linux-libertine/LinLibertine_aBL.otf'
p1494
aS'/usr/share/fonts/truetype/fonts-beng-extra/MuktiNarrow.ttf'
p1495
aS'/usr/share/fonts/truetype/vlgothic/VL-Gothic-Regular.ttf'
p1496
aS'/usr/share/fonts/truetype/ttf-dejavu/DejaVuSansCondensed-Bold.ttf'
p1497
aS'/usr/share/fonts/truetype/msttcorefonts/Verdana_Italic.ttf'
p1498
aS'/usr/share/fonts/opentype/freefont/FreeSerifBold.otf'
p1499
aS'/usr/share/fonts/opentype/linux-libertine/LinLibertine_aZL.otf'
p1500
aS'/usr/share/fonts/truetype/ttf-liberation/LiberationSans-BoldItalic.ttf'
p1501
aS'/usr/share/fonts/truetype/fonts-deva-extra/gargi.ttf'
p1502
aS'/usr/share/fonts/opentype/stix/STIXNonUnicode-Italic.otf'
p1503
aS'/usr/share/fonts/truetype/msttcorefonts/Courier_New.ttf'
p1504
aS'/usr/share/fonts/truetype/liberation/LiberationSansNarrow-BoldItalic.ttf'
p1505
aS'/usr/share/fonts/truetype/msttcorefonts/Arial_Italic.ttf'
p1506
aS'/usr/share/fonts/truetype/msttcorefonts/trebuc.ttf'
p1507
aS'/usr/share/fonts/truetype/ttf-dejavu/DejaVuSerifCondensed-BoldItalic.ttf'
p1508
aS'/usr/share/fonts/truetype/ttf-bitstream-vera/VeraIt.ttf'
p1509
aS'/usr/share/fonts/opentype/mathjax/MathJax_SansSerif-Regular.otf'
p1510
aS'/usr/share/fonts/opentype/mathjax/MathJax_Fraktur-Bold.otf'
p1511
aS'/usr/share/fonts/truetype/msttcorefonts/Arial_Bold.ttf'
p1512
aS'/usr/share/fonts/truetype/freefont/FreeSansBold.ttf'
p1513
aS'/usr/share/fonts/opentype/mathjax/MathJax_Math-Regular.otf'
p1514
aS'/usr/share/fonts/opentype/freefont/FreeSans.otf'
p1515
aS'/usr/share/fonts/truetype/didot/GFSDidot.otf'
p1516
aS'/usr/share/fonts/truetype/gentium/GenI102.ttf'
p1517
aS'/usr/share/fonts/truetype/ttf-dejavu/DejaVuSansMono-BoldOblique.ttf'
p1518
aS'/usr/share/fonts/truetype/msttcorefonts/verdanaz.ttf'
p1519
aS'/usr/share/fonts/truetype/droid/DroidSansGeorgian.ttf'
p1520
aS'/usr/share/fonts/truetype/freefont/FreeMonoBold.ttf'
p1521
aS'/usr/share/fonts/opentype/mathjax/MathJax_Caligraphic-Regular.otf'
p1522
aS'/usr/share/fonts/truetype/ttf-dejavu/DejaVuSans-Bold.ttf'
p1523
aS'/usr/share/fonts/truetype/ttf-bitstream-vera/VeraMono.ttf'
p1524
aS'/home/louis/.fonts/ProggySquare.ttf'
p1525
aS'/usr/share/fonts/truetype/ttf-dejavu/DejaVuSans-ExtraLight.ttf'
p1526
aS'/usr/share/fonts/truetype/msttcorefonts/georgia.ttf'
p1527
aS'/usr/share/fonts/truetype/fonts-beng-extra/MuktiNarrowBold.ttf'
p1528
aS'/usr/share/fonts/truetype/artemisia/GFSArtemisia.otf'
p1529
aS'/usr/share/fonts/truetype/ttf-bitstream-vera/Vera.ttf'
p1530
aS'/usr/share/fonts/opentype/linux-libertine/LinBiolinum_aUB.otf'
p1531
aS'/usr/share/fonts/opentype/freefont/FreeSerifBoldItalic.otf'
p1532
aS'/usr/share/fonts/truetype/msttcorefonts/georgiai.ttf'
p1533
aS'/usr/share/fonts/truetype/msttcorefonts/Andale_Mono.ttf'
p1534
aS'/usr/share/fonts/truetype/liberation/LiberationSans-BoldItalic.ttf'
p1535
aS'/usr/share/fonts/opentype/freefont/FreeMono.otf'
p1536
aS'/usr/share/fonts/opentype/linux-libertine/LinLibertine_RZI.otf'
p1537
aS'/usr/share/fonts/truetype/lyx/cmmi10.ttf'
p1538
aS'/usr/share/fonts/truetype/ttf-liberation/LiberationSerif-Regular.ttf'
p1539
aS'/usr/share/fonts/opentype/linux-libertine/LinLibertine_RI.otf'
p1540
aS'/usr/share/fonts/truetype/droid/DroidSansMono.ttf'
p1541
aS'/usr/share/fonts/opentype/linux-libertine/LinBiolinum_R.otf'
p1542
aS'/usr/share/fonts/opentype/freefont/FreeSerif.otf'
p1543
aS'/usr/share/fonts/truetype/comfortaa/Comfortaa-Regular.ttf'
p1544
aS'/usr/share/fonts/truetype/msttcorefonts/times.ttf'
p1545
aS'/usr/share/fonts/truetype/liberation/LiberationMono-BoldItalic.ttf'
p1546
aS'/usr/share/fonts/truetype/fonts-nakula/nakula.ttf'
p1547
aS'/usr/share/fonts/truetype/fonts-deva-extra/samanata.ttf'
p1548
aS'/usr/share/fonts/truetype/msttcorefonts/couri.ttf'
p1549
aS'/usr/share/fonts/truetype/artemisia/GFSArtemisiaBoldIt.otf'
p1550
aS'/usr/share/fonts/opentype/linux-libertine/LinLibertine_aZS.otf'
p1551
aS'/usr/share/fonts/opentype/freefont/FreeSerifItalic.otf'
p1552
aS'/usr/share/fonts/truetype/comfortaa/Comfortaa-Bold.ttf'
p1553
aS'/usr/share/fonts/opentype/linux-libertine/LinBiolinum_aSB.otf'
p1554
aS'/usr/share/fonts/truetype/olga/GFSOlga.otf'
p1555
aS'/home/louis/.fonts/SAMARO__.TTF'
p1556
aS'/usr/share/fonts/truetype/ttf-liberation/LiberationSerif-BoldItalic.ttf'
p1557
aS'/usr/share/fonts/opentype/linux-libertine/LinLibertine_aBS.otf'
p1558
aS'/usr/share/fonts/opentype/mathjax/MathJax_Fraktur-Regular.otf'
p1559
aS'/usr/share/fonts/truetype/lyx/cmsy10.ttf'
p1560
aS'/usr/share/fonts/opentype/mathjax/MathJax_WinIE6-Regular.otf'
p1561
aS'/usr/share/fonts/truetype/ttf-bitstream-vera/VeraBd.ttf'
p1562
aS'/usr/share/fonts/truetype/openoffice/opens___.ttf'
p1563
aS'/usr/share/fonts/truetype/msttcorefonts/Verdana_Bold_Italic.ttf'
p1564
aS'/usr/share/fonts/truetype/gentium/GenAI102.ttf'
p1565
aS'/usr/share/fonts/truetype/liberation/LiberationSansNarrow-Italic.ttf'
p1566
aS'/usr/share/fonts/truetype/droid/DroidSansFallbackFull.ttf'
p1567
aS'/usr/share/fonts/truetype/artemisia/GFSArtemisiaIt.otf'
p1568
aS'/usr/share/fonts/opentype/stix/STIXSizeThreeSym-Regular.otf'
p1569
aS'/usr/share/fonts/opentype/freefont/FreeSansBold.otf'
p1570
aS'/usr/share/fonts/truetype/ttf-dejavu/DejaVuSerifCondensed-Italic.ttf'
p1571
aS'/usr/share/fonts/truetype/msttcorefonts/Arial_Black.ttf'
p1572
aS'/usr/share/fonts/truetype/didot/GFSDidotBold.otf'
p1573
aS'/usr/share/fonts/truetype/msttcorefonts/Webdings.ttf'
p1574
aS'/usr/share/fonts/truetype/msttcorefonts/courbi.ttf'
p1575
aS'/usr/share/fonts/truetype/gentium/GenAR102.ttf'
p1576
aS'/usr/share/fonts/truetype/msttcorefonts/verdanab.ttf'
p1577
aS'/usr/share/fonts/opentype/linux-libertine/LinBiolinum_aS.otf'
p1578
aS'/usr/share/fonts/truetype/freefont/FreeSansBoldOblique.ttf'
p1579
aS'/usr/share/fonts/truetype/droid/DroidSerif-Italic.ttf'
p1580
aS'/usr/share/fonts/truetype/fonts-deva-extra/kalimati.ttf'
p1581
aS'/usr/share/fonts/truetype/freefont/FreeSerifBold.ttf'
p1582
aS'/usr/share/fonts/truetype/liberation/LiberationMono-Bold.ttf'
p1583
aS'/usr/share/fonts/truetype/freefont/FreeMonoBoldOblique.ttf'
p1584
aS'/usr/share/fonts/truetype/liberation/LiberationSerif-Italic.ttf'
p1585
aS'/usr/share/fonts/truetype/msttcorefonts/Verdana.ttf'
p1586
aS'/usr/share/fonts/truetype/freefont/FreeSans.ttf'
p1587
aS'/usr/share/fonts/opentype/stix/STIXNonUnicode-Bold.otf'
p1588
aS'/usr/share/fonts/opentype/mathjax/MathJax_Size2-Regular.otf'
p1589
aS'/usr/share/fonts/truetype/lohit-bengali/Lohit-Bengali.ttf'
p1590
aS'/usr/share/fonts/truetype/gentium-basic/GenBasBI.ttf'
p1591
aS'/usr/share/fonts/truetype/msttcorefonts/ariali.ttf'
p1592
aS'/usr/share/fonts/opentype/mathjax/MathJax_Size3-Regular.otf'
p1593
aS'/usr/share/fonts/truetype/freefont/FreeSerifBoldItalic.ttf'
p1594
aS'/usr/share/fonts/truetype/msttcorefonts/trebucbi.ttf'
p1595
aS'/usr/share/fonts/truetype/gentium/GenR102.ttf'
p1596
aS'/usr/share/fonts/truetype/ttf-liberation/LiberationSansNarrow-Regular.ttf'
p1597
aS'/home/louis/.fonts/SAMARN__.TTF'
p1598
aS'/usr/share/fonts/opentype/linux-libertine/LinBiolinum_aU.otf'
p1599
aS'/home/louis/.fonts/ProggyCleanSZ.ttf'
p1600
aS'/usr/share/fonts/opentype/mathjax/MathJax_WinChrome-Regular.otf'
p1601
aS'/usr/share/fonts/opentype/stix/STIXSizeThreeSym-Bold.otf'
p1602
aS'/usr/share/fonts/opentype/mathjax/MathJax_SansSerif-Bold.otf'
p1603
aS'/usr/share/fonts/truetype/fonts-beng-extra/JamrulNormal.ttf'
p1604
aS'/usr/share/fonts/truetype/msttcorefonts/timesi.ttf'
p1605
aS'/usr/share/fonts/truetype/solomos/GFSSolomos.otf'
p1606
aS'/usr/share/fonts/truetype/msttcorefonts/Times_New_Roman_Italic.ttf'
p1607
aS'/usr/share/fonts/truetype/droid/DroidSansEthiopic-Regular.ttf'
p1608
aS'/usr/share/fonts/opentype/stix/STIXIntegralsSm-Bold.otf'
p1609
aS'/usr/share/fonts/truetype/liberation/LiberationSans-Regular.ttf'
p1610
aS'/usr/share/fonts/truetype/msttcorefonts/Georgia_Italic.ttf'
p1611
aS'/usr/share/fonts/truetype/ttf-bitstream-vera/VeraMoBI.ttf'
p1612
aS'/usr/share/fonts/opentype/stix/STIXSizeTwoSym-Bold.otf'
p1613
aS'/usr/share/fonts/truetype/msttcorefonts/georgiaz.ttf'
p1614
aS'/usr/share/fonts/truetype/msttcorefonts/Courier_New_Bold_Italic.ttf'
p1615
aS'/usr/share/fonts/opentype/mathjax/MathJax_Main-Bold.otf'
p1616
aS'/usr/share/fonts/truetype/msttcorefonts/comic.ttf'
p1617
aS'/usr/share/fonts/truetype/ttf-liberation/LiberationSansNarrow-Bold.ttf'
p1618
aS'/usr/share/fonts/truetype/neohellenic/GFSNeohellenic.otf'
p1619
aS'/usr/share/fonts/opentype/stix/STIXGeneral-Regular.otf'
p1620
aS'/usr/share/fonts/truetype/msttcorefonts/arialbd.ttf'
p1621
aS'/usr/share/fonts/truetype/junicode/Junicode-Bold.ttf'
p1622
aS'/usr/share/fonts/opentype/linux-libertine/LinBiolinum_aUI.otf'
p1623
aS'/usr/share/fonts/truetype/msttcorefonts/timesbd.ttf'
p1624
aS'/usr/share/fonts/opentype/linux-libertine/LinBiolinum_K.otf'
p1625
aS'/usr/share/fonts/truetype/msttcorefonts/Trebuchet_MS_Bold.ttf'
p1626
aS'/usr/share/fonts/truetype/ttf-dejavu/DejaVuSerif-Italic.ttf'
p1627
aS'/home/louis/.fonts/ProggyClean.ttf'
p1628
aS'/usr/share/fonts/truetype/droid/DroidSansThai.ttf'
p1629
aS'/usr/share/fonts/truetype/didot/GFSDidotItalic.otf'
p1630
aS'/usr/share/fonts/truetype/freefont/FreeMonoOblique.ttf'
p1631
aS'/usr/share/fonts/opentype/mathjax/MathJax_Size1-Regular.otf'
p1632
aS'/usr/share/fonts/opentype/stix/STIXNonUnicode-BoldItalic.otf'
p1633
aS'/usr/share/fonts/truetype/droid/DroidSansHebrew-Regular.ttf'
p1634
aS'/usr/share/fonts/truetype/fonts-deva-extra/chandas1-2.ttf'
p1635
aS'/usr/share/fonts/opentype/stix/STIXSizeTwoSym-Regular.otf'
p1636
aS'/usr/share/fonts/truetype/droid/DroidSans-Bold.ttf'
p1637
aS'/usr/share/fonts/opentype/mathjax/MathJax_Script-Regular.otf'
p1638
aS'/usr/share/fonts/opentype/stix/STIXSizeFourSym-Bold.otf'
p1639
aS'/usr/share/fonts/truetype/ttf-dejavu/DejaVuSansMono-Oblique.ttf'
p1640
aS'/usr/share/fonts/truetype/liberation/LiberationSansNarrow-Regular.ttf'
p1641
aS'/usr/share/fonts/truetype/msttcorefonts/trebucit.ttf'
p1642
aS'/usr/share/fonts/truetype/ttf-liberation/LiberationMono-Regular.ttf'
p1643
aS'/usr/share/fonts/opentype/stix/STIXSizeOneSym-Bold.otf'
p1644
aS'/usr/share/fonts/truetype/msttcorefonts/timesbi.ttf'
p1645
aS'/usr/share/fonts/truetype/liberation/LiberationSerif-Regular.ttf'
p1646
aS'/usr/share/fonts/opentype/stix/STIXVariants-Bold.otf'
p1647
aS'/usr/share/fonts/truetype/fonts-sahadeva/sahadeva.ttf'
p1648
aS'/usr/share/fonts/opentype/linux-libertine/LinBiolinum_aRL.otf'
p1649
aS'/usr/share/fonts/truetype/droid/DroidSansArmenian.ttf'
p1650
aS'/usr/share/fonts/opentype/linux-libertine/LinBiolinum_RI.otf'
p1651
aS'/usr/share/fonts/truetype/msttcorefonts/Comic_Sans_MS.ttf'
p1652
aS'/usr/share/fonts/truetype/ttf-bitstream-vera/VeraMoIt.ttf'
p1653
aS'/usr/share/fonts/opentype/stix/STIXIntegralsSm-Regular.otf'
p1654
aS'/usr/share/fonts/truetype/msttcorefonts/Arial_Bold_Italic.ttf'
p1655
aS'/usr/share/fonts/opentype/stix/STIXIntegralsD-Regular.otf'
p1656
aS'/home/louis/.fonts/ProggyCleanCE.ttf'
p1657
aS'/usr/share/fonts/opentype/stix/STIXSizeOneSym-Regular.otf'
p1658
aS'/usr/share/fonts/truetype/ttf-liberation/LiberationMono-BoldItalic.ttf'
p1659
aS'/usr/share/fonts/truetype/lyx/cmex10.ttf'
p1660
aS'/usr/share/fonts/truetype/msttcorefonts/arial.ttf'
p1661
aS'/usr/share/fonts/opentype/mathjax/MathJax_SansSerif-Italic.otf'
p1662
aS'/usr/share/fonts/opentype/linux-libertine/LinBiolinum_aWB.otf'
p1663
aS'/usr/share/fonts/truetype/msttcorefonts/impact.ttf'
p1664
aS'/usr/share/fonts/opentype/stix/STIXIntegralsUpD-Bold.otf'
p1665
aS'/usr/share/fonts/opentype/stix/STIXIntegralsD-Bold.otf'
p1666
aS'/usr/share/fonts/opentype/linux-libertine/LinBiolinum_aBL.otf'
p1667
aS'/usr/share/fonts/truetype/neohellenic/GFSNeohellenicBold.otf'
p1668
aS'/usr/share/fonts/truetype/msttcorefonts/Verdana_Bold.ttf'
p1669
aS'/usr/share/fonts/truetype/droid/DroidSansJapanese.ttf'
p1670
aS'/usr/share/fonts/truetype/msttcorefonts/Trebuchet_MS_Bold_Italic.ttf'
p1671
aS'/usr/share/fonts/opentype/mathjax/MathJax_Math-Italic.otf'
p1672
aS'/usr/share/fonts/truetype/complutum/GFSPolyglot.otf'
p1673
aS'/usr/share/fonts/truetype/fonts-beng-extra/LikhanNormal.ttf'
p1674
aS'/usr/share/fonts/truetype/ttf-liberation/LiberationSansNarrow-Italic.ttf'
p1675
aS'/usr/share/fonts/truetype/ttf-bitstream-vera/VeraMoBd.ttf'
p1676
aS'/usr/share/fonts/opentype/stix/STIXSizeFourSym-Regular.otf'
p1677
aS'/usr/share/fonts/truetype/freefont/FreeMono.ttf'
p1678
aS'/usr/share/fonts/truetype/msttcorefonts/trebucbd.ttf'
p1679
aS'/usr/share/fonts/opentype/linux-libertine/LinLibertine_RBI.otf'
p1680
aS'/usr/share/fonts/truetype/msttcorefonts/Courier_New_Bold.ttf'
p1681
aS'/usr/share/fonts/truetype/msttcorefonts/Times_New_Roman_Bold.ttf'
p1682
aS'/usr/share/fonts/opentype/freefont/FreeMonoBold.otf'
p1683
aS'/usr/share/fonts/truetype/freefont/FreeSerifItalic.ttf'
p1684
aS'/usr/share/fonts/opentype/stix/STIXIntegralsUpSm-Bold.otf'
p1685
aS'/usr/share/fonts/truetype/neohellenic/GFSNeohellenicBoldIt.otf'
p1686
aS'/usr/share/fonts/opentype/mathjax/MathJax_Math-BoldItalic.otf'
p1687
aS'/usr/share/fonts/truetype/ttf-bitstream-vera/VeraSe.ttf'
p1688
aS'/usr/share/fonts/opentype/linux-libertine/LinLibertine_I.otf'
p1689
aS'/usr/share/fonts/truetype/ttf-dejavu/DejaVuSerifCondensed.ttf'
p1690
aS'/usr/share/fonts/truetype/lohit-assamese/Lohit-Assamese.ttf'
p1691
aS'/usr/share/fonts/truetype/gentium-basic/GenBkBasI.ttf'
p1692
aS'/usr/share/fonts/truetype/droid/DroidNaskh-Regular.ttf'
p1693
aS'/usr/share/fonts/truetype/ttf-liberation/LiberationSans-Regular.ttf'
p1694
asS'_FontManager__default_weight'
p1695
g13
sS'_version'
p1696
I101
sS'ttf_lookup_cache'
p1697
(dp1698
sS'default_size'
p1699
NsS'defaultFont'
p1700
(dp1701
g1340
S'/usr/share/matplotlib/mpl-data/fonts/afm/phvl8a.afm'
p1702
sg1342
g1530
ssS'afmfiles'
p1703
(lp1704
g1702
aS'/usr/share/matplotlib/mpl-data/fonts/afm/pzcmi8a.afm'
p1705
aS'/usr/share/matplotlib/mpl-data/fonts/afm/pplb8a.afm'
p1706
aS'/usr/share/matplotlib/mpl-data/fonts/afm/putbi8a.afm'
p1707
aS'/usr/share/matplotlib/mpl-data/fonts/pdfcorefonts/Helvetica-BoldOblique.afm'
p1708
aS'/usr/share/matplotlib/mpl-data/fonts/afm/phvro8an.afm'
p1709
aS'/usr/share/matplotlib/mpl-data/fonts/afm/pbkd8a.afm'
p1710
aS'/usr/share/matplotlib/mpl-data/fonts/afm/pncri8a.afm'
p1711
aS'/usr/share/matplotlib/mpl-data/fonts/pdfcorefonts/Helvetica-Bold.afm'
p1712
aS'/usr/share/matplotlib/mpl-data/fonts/pdfcorefonts/Times-BoldItalic.afm'
p1713
aS'/usr/share/matplotlib/mpl-data/fonts/afm/pcrb8a.afm'
p1714
aS'/usr/share/matplotlib/mpl-data/fonts/afm/pagdo8a.afm'
p1715
aS'/usr/share/matplotlib/mpl-data/fonts/afm/pcrr8a.afm'
p1716
aS'/usr/share/matplotlib/mpl-data/fonts/afm/pncb8a.afm'
p1717
aS'/usr/share/matplotlib/mpl-data/fonts/pdfcorefonts/Courier-Bold.afm'
p1718
aS'/usr/share/matplotlib/mpl-data/fonts/afm/pncbi8a.afm'
p1719
aS'/usr/share/matplotlib/mpl-data/fonts/afm/cmex10.afm'
p1720
aS'/usr/share/matplotlib/mpl-data/fonts/afm/cmtt10.afm'
p1721
aS'/usr/share/matplotlib/mpl-data/fonts/pdfcorefonts/Symbol.afm'
p1722
aS'/usr/share/matplotlib/mpl-data/fonts/afm/phvr8an.afm'
p1723
aS'/usr/share/matplotlib/mpl-data/fonts/afm/phvro8a.afm'
p1724
aS'/usr/share/matplotlib/mpl-data/fonts/afm/ptmr8a.afm'
p1725
aS'/usr/share/matplotlib/mpl-data/fonts/pdfcorefonts/Helvetica-Oblique.afm'
p1726
aS'/usr/share/matplotlib/mpl-data/fonts/afm/pplbi8a.afm'
p1727
aS'/usr/share/matplotlib/mpl-data/fonts/afm/cmsy10.afm'
p1728
aS'/usr/share/matplotlib/mpl-data/fonts/afm/pagk8a.afm'
p1729
aS'/usr/share/matplotlib/mpl-data/fonts/pdfcorefonts/Courier-BoldOblique.afm'
p1730
aS'/usr/share/matplotlib/mpl-data/fonts/afm/putb8a.afm'
p1731
aS'/usr/share/matplotlib/mpl-data/fonts/afm/cmmi10.afm'
p1732
aS'/usr/share/matplotlib/mpl-data/fonts/afm/pagko8a.afm'
p1733
aS'/usr/share/matplotlib/mpl-data/fonts/afm/phvbo8an.afm'
p1734
aS'/usr/share/matplotlib/mpl-data/fonts/afm/phvbo8a.afm'
p1735
aS'/usr/share/matplotlib/mpl-data/fonts/afm/cmr10.afm'
p1736
aS'/usr/share/matplotlib/mpl-data/fonts/pdfcorefonts/Times-Bold.afm'
p1737
aS'/usr/share/matplotlib/mpl-data/fonts/afm/ptmb8a.afm'
p1738
aS'/usr/share/matplotlib/mpl-data/fonts/afm/phvlo8a.afm'
p1739
aS'/usr/share/matplotlib/mpl-data/fonts/afm/phvb8a.afm'
p1740
aS'/usr/share/matplotlib/mpl-data/fonts/afm/pzdr.afm'
p1741
aS'/usr/share/matplotlib/mpl-data/fonts/afm/ptmri8a.afm'
p1742
aS'/usr/share/matplotlib/mpl-data/fonts/afm/pcrbo8a.afm'
p1743
aS'/usr/share/matplotlib/mpl-data/fonts/afm/pplr8a.afm'
p1744
aS'/usr/share/matplotlib/mpl-data/fonts/afm/pbkl8a.afm'
p1745
aS'/usr/share/matplotlib/mpl-data/fonts/pdfcorefonts/Times-Roman.afm'
p1746
aS'/usr/share/matplotlib/mpl-data/fonts/afm/pcrro8a.afm'
p1747
aS'/usr/share/matplotlib/mpl-data/fonts/pdfcorefonts/ZapfDingbats.afm'
p1748
aS'/usr/share/matplotlib/mpl-data/fonts/afm/psyr.afm'
p1749
aS'/usr/share/matplotlib/mpl-data/fonts/pdfcorefonts/Helvetica.afm'
p1750
aS'/usr/share/matplotlib/mpl-data/fonts/afm/pplri8a.afm'
p1751
aS'/usr/share/matplotlib/mpl-data/fonts/afm/ptmbi8a.afm'
p1752
aS'/usr/share/matplotlib/mpl-data/fonts/afm/pbkli8a.afm'
p1753
aS'/usr/share/matplotlib/mpl-data/fonts/pdfcorefonts/Courier-Oblique.afm'
p1754
aS'/usr/share/matplotlib/mpl-data/fonts/afm/putr8a.afm'
p1755
aS'/usr/share/matplotlib/mpl-data/fonts/afm/pagd8a.afm'
p1756
aS'/usr/share/matplotlib/mpl-data/fonts/afm/pncr8a.afm'
p1757
aS'/usr/share/matplotlib/mpl-data/fonts/pdfcorefonts/Times-Italic.afm'
p1758
aS'/usr/share/matplotlib/mpl-data/fonts/afm/pbkdi8a.afm'
p1759
aS'/usr/share/matplotlib/mpl-data/fonts/afm/putri8a.afm'
p1760
aS'/usr/share/matplotlib/mpl-data/fonts/pdfcorefonts/Courier.afm'
p1761
aS'/usr/share/matplotlib/mpl-data/fonts/afm/phvr8a.afm'
p1762
aS'/usr/share/matplotlib/mpl-data/fonts/afm/phvb8an.afm'
p1763
aS'/usr/share/fonts/type1/gsfonts/n021024l.afm'
p1764
aS'/usr/share/fonts/type1/gsfonts/n019024l.afm'
p1765
aS'/usr/share/fonts/type1/gsfonts/n021004l.afm'
p1766
aS'/usr/share/fonts/X11/Type1/lmtto10.afm'
p1767
aS'/usr/share/fonts/X11/Type1/lmbxo10.afm'
p1768
aS'/usr/share/fonts/X11/Type1/lmvtlo10.afm'
p1769
aS'/usr/share/fonts/type1/gsfonts/s050000l.afm'
p1770
aS'/usr/share/fonts/type1/gsfonts/p052024l.afm'
p1771
aS'/usr/share/fonts/type1/gsfonts/p052004l.afm'
p1772
aS'/usr/share/fonts/type1/gsfonts/n019044l.afm'
p1773
aS'/usr/share/fonts/X11/Type1/lmbx10.afm'
p1774
aS'/usr/share/fonts/X11/Type1/lmssqo8.afm'
p1775
aS'/usr/share/fonts/type1/gsfonts/b018012l.afm'
p1776
aS'/usr/share/fonts/type1/gsfonts/n022003l.afm'
p1777
aS'/usr/share/fonts/X11/Type1/c0583bt_.afm'
p1778
aS'/usr/share/fonts/type1/gsfonts/c059013l.afm'
p1779
aS'/usr/share/fonts/type1/gsfonts/a010033l.afm'
p1780
aS'/usr/share/fonts/type1/gsfonts/p052023l.afm'
p1781
aS'/usr/share/fonts/type1/gsfonts/z003034l.afm'
p1782
aS'/usr/share/fonts/X11/Type1/lmtcsc10.afm'
p1783
aS'/usr/share/fonts/type1/gsfonts/n022024l.afm'
p1784
aS'/usr/share/fonts/X11/Type1/lmtcso10.afm'
p1785
aS'/usr/share/fonts/X11/Type1/lmbxi10.afm'
p1786
aS'/usr/share/fonts/type1/gsfonts/n019043l.afm'
p1787
aS'/usr/share/fonts/X11/Type1/Symbol.afm'
p1788
aS'/usr/share/fonts/X11/Type1/c0633bt_.afm'
p1789
aS'/usr/share/fonts/X11/Type1/lmtk10.afm'
p1790
aS'/usr/share/fonts/X11/Type1/lmdunh10.afm'
p1791
aS'/usr/share/fonts/X11/Type1/c0611bt_.afm'
p1792
aS'/usr/share/fonts/X11/Type1/c0649bt_.afm'
p1793
aS'/usr/share/fonts/X11/Type1/lmssbx10.afm'
p1794
aS'/usr/share/fonts/type1/gsfonts/n019064l.afm'
p1795
aS'/usr/share/fonts/type1/gsfonts/n019003l.afm'
p1796
aS'/usr/share/fonts/type1/gsfonts/d050000l.afm'
p1797
aS'/usr/share/fonts/type1/gsfonts/b018035l.afm'
p1798
aS'/usr/share/fonts/X11/Type1/lmvtt10.afm'
p1799
aS'/usr/share/fonts/X11/Type1/lmvtk10.afm'
p1800
aS'/usr/share/fonts/X11/Type1/lmduno10.afm'
p1801
aS'/usr/share/fonts/type1/gsfonts/a010013l.afm'
p1802
aS'/usr/share/fonts/X11/Type1/c0582bt_.afm'
p1803
aS'/usr/share/fonts/X11/Type1/lmssdo10.afm'
p1804
aS'/usr/share/fonts/type1/gsfonts/n022004l.afm'
p1805
aS'/usr/share/fonts/X11/Type1/lmssq8.afm'
p1806
aS'/usr/share/fonts/X11/Type1/lmss10.afm'
p1807
aS'/usr/share/fonts/type1/mathml/Symbol.afm'
p1808
aS'/usr/share/fonts/X11/Type1/lmro10.afm'
p1809
aS'/usr/share/fonts/type1/gsfonts/n021003l.afm'
p1810
aS'/usr/share/fonts/type1/gsfonts/c059033l.afm'
p1811
aS'/usr/share/fonts/X11/Type1/lmcsc10.afm'
p1812
aS'/usr/share/fonts/type1/gsfonts/n019023l.afm'
p1813
aS'/usr/share/fonts/X11/Type1/lmtko10.afm'
p1814
aS'/usr/share/fonts/X11/Type1/lmvtko10.afm'
p1815
aS'/usr/share/fonts/X11/Type1/lmtti10.afm'
p1816
aS'/usr/share/fonts/X11/Type1/lmbo10.afm'
p1817
aS'/usr/share/fonts/type1/gsfonts/c059036l.afm'
p1818
aS'/usr/share/fonts/X11/Type1/lmri10.afm'
p1819
aS'/usr/share/fonts/type1/gsfonts/n019004l.afm'
p1820
aS'/usr/share/fonts/X11/Type1/lmssqbo8.afm'
p1821
aS'/usr/share/fonts/type1/gsfonts/p052003l.afm'
p1822
aS'/usr/share/fonts/X11/Type1/lmr10.afm'
p1823
aS'/usr/share/fonts/type1/gsfonts/a010015l.afm'
p1824
aS'/usr/share/fonts/X11/Type1/lmssqbx8.afm'
p1825
aS'/usr/share/fonts/X11/Type1/lmtt10.afm'
p1826
aS'/usr/share/fonts/X11/Type1/lmvtto10.afm'
p1827
aS'/usr/share/fonts/X11/Type1/lmssdc10.afm'
p1828
aS'/usr/share/fonts/type1/gsfonts/b018032l.afm'
p1829
aS'/usr/share/fonts/X11/Type1/lmcsco10.afm'
p1830
aS'/usr/share/fonts/X11/Type1/lmtl10.afm'
p1831
aS'/usr/share/fonts/type1/gsfonts/c059016l.afm'
p1832
aS'/usr/share/fonts/X11/Type1/c0648bt_.afm'
p1833
aS'/usr/share/fonts/type1/gsfonts/n022023l.afm'
p1834
aS'/usr/share/fonts/X11/Type1/lmtlc10.afm'
p1835
aS'/usr/share/fonts/type1/gsfonts/n021023l.afm'
p1836
aS'/usr/share/fonts/X11/Type1/lmtlo10.afm'
p1837
aS'/usr/share/fonts/X11/Type1/lmssbo10.afm'
p1838
aS'/usr/share/fonts/X11/Type1/c0632bt_.afm'
p1839
aS'/usr/share/fonts/X11/Type1/lmvtl10.afm'
p1840
aS'/usr/share/fonts/type1/gsfonts/a010035l.afm'
p1841
aS'/usr/share/fonts/X11/Type1/lmsso10.afm'
p1842
aS'/usr/share/fonts/type1/gsfonts/n019063l.afm'
p1843
aS'/usr/share/fonts/X11/Type1/lmu10.afm'
p1844
aS'/usr/share/fonts/X11/Type1/lmb10.afm'
p1845
aS'/usr/share/fonts/X11/Type1/lmtlco10.afm'
p1846
aS'/usr/share/fonts/type1/gsfonts/b018015l.afm'
p1847
aS'/usr/share/fonts/X11/Type1/c0419bt_.afm'
p1848
asS'afmlist'
p1849
(lp1850
g7
(g8
g9
NtRp1851
(dp1852
g12
g13
sg14
S'Helvetica'
p1853
sg16
I200
sg17
g13
sg18
g13
sg19
g1702
sg21
g22
sbag7
(g8
g9
NtRp1854
(dp1855
g12
g29
sg14
S'ITC Zapf Chancery'
p1856
sg16
I500
sg17
g13
sg18
g13
sg19
g1705
sg21
g22
sbag7
(g8
g9
NtRp1857
(dp1858
g12
g13
sg14
S'Palatino'
p1859
sg16
I700
sg17
g13
sg18
g13
sg19
g1706
sg21
g22
sbag7
(g8
g9
NtRp1860
(dp1861
g12
g29
sg14
S'Utopia'
p1862
sg16
I700
sg17
g13
sg18
g13
sg19
g1707
sg21
g22
sbag7
(g8
g9
NtRp1863
(dp1864
g12
g29
sg14
S'Helvetica'
p1865
sg16
I700
sg17
g13
sg18
g13
sg19
g1708
sg21
g22
sbag7
(g8
g9
NtRp1866
(dp1867
g12
g29
sg14
S'Helvetica'
p1868
sg16
I500
sg17
g179
sg18
g13
sg19
g1709
sg21
g22
sbag7
(g8
g9
NtRp1869
(dp1870
g12
g13
sg14
S'ITC Bookman'
p1871
sg16
I600
sg17
g13
sg18
g13
sg19
g1710
sg21
g22
sbag7
(g8
g9
NtRp1872
(dp1873
g12
g29
sg14
S'New Century Schoolbook'
p1874
sg16
I500
sg17
g13
sg18
g13
sg19
g1711
sg21
g22
sbag7
(g8
g9
NtRp1875
(dp1876
g12
g13
sg14
S'Helvetica'
p1877
sg16
I700
sg17
g13
sg18
g13
sg19
g1712
sg21
g22
sbag7
(g8
g9
NtRp1878
(dp1879
g12
g29
sg14
S'Times'
p1880
sg16
I700
sg17
g13
sg18
g13
sg19
g1713
sg21
g22
sbag7
(g8
g9
NtRp1881
(dp1882
g12
g13
sg14
S'Courier'
p1883
sg16
I700
sg17
g13
sg18
g13
sg19
g1714
sg21
g22
sbag7
(g8
g9
NtRp1884
(dp1885
g12
g29
sg14
S'ITC Avant Garde Gothic'
p1886
sg16
I600
sg17
g13
sg18
g13
sg19
g1715
sg21
g22
sbag7
(g8
g9
NtRp1887
(dp1888
g12
g13
sg14
S'Courier'
p1889
sg16
I500
sg17
g13
sg18
g13
sg19
g1716
sg21
g22
sbag7
(g8
g9
NtRp1890
(dp1891
g12
g13
sg14
S'New Century Schoolbook'
p1892
sg16
I700
sg17
g13
sg18
g13
sg19
g1717
sg21
g22
sbag7
(g8
g9
NtRp1893
(dp1894
g12
g13
sg14
S'Courier'
p1895
sg16
I700
sg17
g13
sg18
g13
sg19
g1718
sg21
g22
sbag7
(g8
g9
NtRp1896
(dp1897
g12
g29
sg14
S'New Century Schoolbook'
p1898
sg16
I700
sg17
g13
sg18
g13
sg19
g1719
sg21
g22
sbag7
(g8
g9
NtRp1899
(dp1900
g12
g13
sg14
S'Computer Modern'
p1901
sg16
I500
sg17
g13
sg18
g13
sg19
g1720
sg21
g22
sbag7
(g8
g9
NtRp1902
(dp1903
g12
g13
sg14
S'Computer Modern'
p1904
sg16
I500
sg17
g13
sg18
g13
sg19
g1721
sg21
g22
sbag7
(g8
g9
NtRp1905
(dp1906
g12
g13
sg14
S'Symbol'
p1907
sg16
I500
sg17
g13
sg18
g13
sg19
g1722
sg21
g22
sbag7
(g8
g9
NtRp1908
(dp1909
g12
g13
sg14
S'Helvetica'
p1910
sg16
I500
sg17
g179
sg18
g13
sg19
g1723
sg21
g22
sbag7
(g8
g9
NtRp1911
(dp1912
g12
g29
sg14
S'Helvetica'
p1913
sg16
I500
sg17
g13
sg18
g13
sg19
g1724
sg21
g22
sbag7
(g8
g9
NtRp1914
(dp1915
g12
g13
sg14
S'Times'
p1916
sg16
I500
sg17
g13
sg18
g13
sg19
g1725
sg21
g22
sbag7
(g8
g9
NtRp1917
(dp1918
g12
g29
sg14
S'Helvetica'
p1919
sg16
I500
sg17
g13
sg18
g13
sg19
g1726
sg21
g22
sbag7
(g8
g9
NtRp1920
(dp1921
g12
g29
sg14
S'Palatino'
p1922
sg16
I700
sg17
g13
sg18
g13
sg19
g1727
sg21
g22
sbag7
(g8
g9
NtRp1923
(dp1924
g12
g29
sg14
S'Computer Modern'
p1925
sg16
I500
sg17
g13
sg18
g13
sg19
g1728
sg21
g22
sbag7
(g8
g9
NtRp1926
(dp1927
g12
g13
sg14
S'ITC Avant Garde Gothic'
p1928
sg16
I400
sg17
g13
sg18
g13
sg19
g1729
sg21
g22
sbag7
(g8
g9
NtRp1929
(dp1930
g12
g29
sg14
S'Courier'
p1931
sg16
I700
sg17
g13
sg18
g13
sg19
g1730
sg21
g22
sbag7
(g8
g9
NtRp1932
(dp1933
g12
g13
sg14
S'Utopia'
p1934
sg16
I700
sg17
g13
sg18
g13
sg19
g1731
sg21
g22
sbag7
(g8
g9
NtRp1935
(dp1936
g12
g29
sg14
S'Computer Modern'
p1937
sg16
I500
sg17
g13
sg18
g13
sg19
g1732
sg21
g22
sbag7
(g8
g9
NtRp1938
(dp1939
g12
g29
sg14
S'ITC Avant Garde Gothic'
p1940
sg16
I400
sg17
g13
sg18
g13
sg19
g1733
sg21
g22
sbag7
(g8
g9
NtRp1941
(dp1942
g12
g29
sg14
S'Helvetica'
p1943
sg16
I700
sg17
g179
sg18
g13
sg19
g1734
sg21
g22
sbag7
(g8
g9
NtRp1944
(dp1945
g12
g29
sg14
S'Helvetica'
p1946
sg16
I700
sg17
g13
sg18
g13
sg19
g1735
sg21
g22
sbag7
(g8
g9
NtRp1947
(dp1948
g12
g13
sg14
S'Computer Modern'
p1949
sg16
I500
sg17
g13
sg18
g13
sg19
g1736
sg21
g22
sbag7
(g8
g9
NtRp1950
(dp1951
g12
g13
sg14
S'Times'
p1952
sg16
I700
sg17
g13
sg18
g13
sg19
g1737
sg21
g22
sbag7
(g8
g9
NtRp1953
(dp1954
g12
g13
sg14
S'Times'
p1955
sg16
I700
sg17
g13
sg18
g13
sg19
g1738
sg21
g22
sbag7
(g8
g9
NtRp1956
(dp1957
g12
g29
sg14
S'Helvetica'
p1958
sg16
I200
sg17
g13
sg18
g13
sg19
g1739
sg21
g22
sbag7
(g8
g9
NtRp1959
(dp1960
g12
g13
sg14
S'Helvetica'
p1961
sg16
I700
sg17
g13
sg18
g13
sg19
g1740
sg21
g22
sbag7
(g8
g9
NtRp1962
(dp1963
g12
g13
sg14
S'ITC Zapf Dingbats'
p1964
sg16
I500
sg17
g13
sg18
g13
sg19
g1741
sg21
g22
sbag7
(g8
g9
NtRp1965
(dp1966
g12
g29
sg14
S'Times'
p1967
sg16
I500
sg17
g13
sg18
g13
sg19
g1742
sg21
g22
sbag7
(g8
g9
NtRp1968
(dp1969
g12
g29
sg14
S'Courier'
p1970
sg16
I700
sg17
g13
sg18
g13
sg19
g1743
sg21
g22
sbag7
(g8
g9
NtRp1971
(dp1972
g12
g13
sg14
S'Palatino'
p1973
sg16
I500
sg17
g13
sg18
g13
sg19
g1744
sg21
g22
sbag7
(g8
g9
NtRp1974
(dp1975
g12
g13
sg14
S'ITC Bookman'
p1976
sg16
I200
sg17
g13
sg18
g13
sg19
g1745
sg21
g22
sbag7
(g8
g9
NtRp1977
(dp1978
g12
g13
sg14
S'Times'
p1979
sg16
I500
sg17
g13
sg18
g13
sg19
g1746
sg21
g22
sbag7
(g8
g9
NtRp1980
(dp1981
g12
g29
sg14
S'Courier'
p1982
sg16
I500
sg17
g13
sg18
g13
sg19
g1747
sg21
g22
sbag7
(g8
g9
NtRp1983
(dp1984
g12
g13
sg14
S'ZapfDingbats'
p1985
sg16
I500
sg17
g13
sg18
g13
sg19
g1748
sg21
g22
sbag7
(g8
g9
NtRp1986
(dp1987
g12
g13
sg14
S'Symbol'
p1988
sg16
I500
sg17
g13
sg18
g13
sg19
g1749
sg21
g22
sbag7
(g8
g9
NtRp1989
(dp1990
g12
g13
sg14
S'Helvetica'
p1991
sg16
I500
sg17
g13
sg18
g13
sg19
g1750
sg21
g22
sbag7
(g8
g9
NtRp1992
(dp1993
g12
g29
sg14
S'Palatino'
p1994
sg16
I500
sg17
g13
sg18
g13
sg19
g1751
sg21
g22
sbag7
(g8
g9
NtRp1995
(dp1996
g12
g29
sg14
S'Times'
p1997
sg16
I700
sg17
g13
sg18
g13
sg19
g1752
sg21
g22
sbag7
(g8
g9
NtRp1998
(dp1999
g12
g29
sg14
S'ITC Bookman'
p2000
sg16
I200
sg17
g13
sg18
g13
sg19
g1753
sg21
g22
sbag7
(g8
g9
NtRp2001
(dp2002
g12
g29
sg14
S'Courier'
p2003
sg16
I500
sg17
g13
sg18
g13
sg19
g1754
sg21
g22
sbag7
(g8
g9
NtRp2004
(dp2005
g12
g13
sg14
S'Utopia'
p2006
sg16
I400
sg17
g13
sg18
g13
sg19
g1755
sg21
g22
sbag7
(g8
g9
NtRp2007
(dp2008
g12
g13
sg14
S'ITC Avant Garde Gothic'
p2009
sg16
I600
sg17
g13
sg18
g13
sg19
g1756
sg21
g22
sbag7
(g8
g9
NtRp2010
(dp2011
g12
g13
sg14
S'New Century Schoolbook'
p2012
sg16
I500
sg17
g13
sg18
g13
sg19
g1757
sg21
g22
sbag7
(g8
g9
NtRp2013
(dp2014
g12
g29
sg14
S'Times'
p2015
sg16
I500
sg17
g13
sg18
g13
sg19
g1758
sg21
g22
sbag7
(g8
g9
NtRp2016
(dp2017
g12
g29
sg14
S'ITC Bookman'
p2018
sg16
I600
sg17
g13
sg18
g13
sg19
g1759
sg21
g22
sbag7
(g8
g9
NtRp2019
(dp2020
g12
g29
sg14
S'Utopia'
p2021
sg16
I400
sg17
g13
sg18
g13
sg19
g1760
sg21
g22
sbag7
(g8
g9
NtRp2022
(dp2023
g12
g13
sg14
S'Courier'
p2024
sg16
I500
sg17
g13
sg18
g13
sg19
g1761
sg21
g22
sbag7
(g8
g9
NtRp2025
(dp2026
g12
g13
sg14
S'Helvetica'
p2027
sg16
I500
sg17
g13
sg18
g13
sg19
g1762
sg21
g22
sbag7
(g8
g9
NtRp2028
(dp2029
g12
g13
sg14
S'Helvetica'
p2030
sg16
I700
sg17
g179
sg18
g13
sg19
g1763
sg21
g22
sbag7
(g8
g9
NtRp2031
(dp2032
g12
g29
sg14
S'Nimbus Roman No9 L'
p2033
sg16
I700
sg17
g13
sg18
g13
sg19
g1764
sg21
g22
sbag7
(g8
g9
NtRp2034
(dp2035
g12
g29
sg14
S'Nimbus Sans L'
p2036
sg16
I700
sg17
g13
sg18
g13
sg19
g1765
sg21
g22
sbag7
(g8
g9
NtRp2037
(dp2038
g12
g13
sg14
S'Nimbus Roman No9 L'
p2039
sg16
I700
sg17
g13
sg18
g13
sg19
g1766
sg21
g22
sbag7
(g8
g9
NtRp2040
(dp2041
g12
g29
sg14
S'LMMonoSlant10'
p2042
sg16
I400
sg17
g13
sg18
g13
sg19
g1767
sg21
g22
sbag7
(g8
g9
NtRp2043
(dp2044
g12
g29
sg14
S'LMRomanSlant10'
p2045
sg16
I700
sg17
g13
sg18
g13
sg19
g1768
sg21
g22
sbag7
(g8
g9
NtRp2046
(dp2047
g12
g29
sg14
S'LMMonoPropLt10'
p2048
sg16
I200
sg17
g13
sg18
g13
sg19
g1769
sg21
g22
sbag7
(g8
g9
NtRp2049
(dp2050
g12
g13
sg14
S'Standard Symbols L'
p2051
sg16
I400
sg17
g13
sg18
g13
sg19
g1770
sg21
g22
sbag7
(g8
g9
NtRp2052
(dp2053
g12
g29
sg14
S'URW Palladio L'
p2054
sg16
I700
sg17
g13
sg18
g13
sg19
g1771
sg21
g22
sbag7
(g8
g9
NtRp2055
(dp2056
g12
g13
sg14
S'URW Palladio L'
p2057
sg16
I700
sg17
g13
sg18
g13
sg19
g1772
sg21
g22
sbag7
(g8
g9
NtRp2058
(dp2059
g12
g13
sg14
S'Nimbus Sans L'
p2060
sg16
I700
sg17
g179
sg18
g13
sg19
g1773
sg21
g22
sbag7
(g8
g9
NtRp2061
(dp2062
g12
g13
sg14
S'LMRoman10'
p2063
sg16
I700
sg17
g13
sg18
g13
sg19
g1774
sg21
g22
sbag7
(g8
g9
NtRp2064
(dp2065
g12
g29
sg14
S'LMSansQuot8'
p2066
sg16
I400
sg17
g13
sg18
g13
sg19
g1775
sg21
g22
sbag7
(g8
g9
NtRp2067
(dp2068
g12
g13
sg14
S'URW Bookman L'
p2069
sg16
I400
sg17
g13
sg18
g13
sg19
g1776
sg21
g22
sbag7
(g8
g9
NtRp2070
(dp2071
g12
g13
sg14
S'Nimbus Mono L'
p2072
sg16
I400
sg17
g13
sg18
g13
sg19
g1777
sg21
g22
sbag7
(g8
g9
NtRp2073
(dp2074
g12
g13
sg14
S'Courier 10 Pitch'
p2075
sg16
I700
sg17
g13
sg18
g13
sg19
g1778
sg21
g22
sbag7
(g8
g9
NtRp2076
(dp2077
g12
g13
sg14
S'Century Schoolbook L'
p2078
sg16
I500
sg17
g13
sg18
g13
sg19
g1779
sg21
g22
sbag7
(g8
g9
NtRp2079
(dp2080
g12
g29
sg14
S'URW Gothic L'
p2081
sg16
I400
sg17
g13
sg18
g13
sg19
g1780
sg21
g22
sbag7
(g8
g9
NtRp2082
(dp2083
g12
g29
sg14
S'URW Palladio L'
p2084
sg16
I400
sg17
g13
sg18
g13
sg19
g1781
sg21
g22
sbag7
(g8
g9
NtRp2085
(dp2086
g12
g29
sg14
S'URW Chancery L'
p2087
sg16
I500
sg17
g13
sg18
g13
sg19
g1782
sg21
g22
sbag7
(g8
g9
NtRp2088
(dp2089
g12
g13
sg14
S'LMMonoCaps10'
p2090
sg16
I400
sg17
g13
sg18
g13
sg19
g1783
sg21
g22
sbag7
(g8
g9
NtRp2091
(dp2092
g12
g29
sg14
S'Nimbus Mono L'
p2093
sg16
I700
sg17
g13
sg18
g13
sg19
g1784
sg21
g22
sbag7
(g8
g9
NtRp2094
(dp2095
g12
g29
sg14
S'LMMonoCaps10'
p2096
sg16
I400
sg17
g13
sg18
g13
sg19
g1785
sg21
g22
sbag7
(g8
g9
NtRp2097
(dp2098
g12
g29
sg14
S'LMRoman10'
p2099
sg16
I700
sg17
g13
sg18
g13
sg19
g1786
sg21
g22
sbag7
(g8
g9
NtRp2100
(dp2101
g12
g13
sg14
S'Nimbus Sans L'
p2102
sg16
I400
sg17
g179
sg18
g13
sg19
g1787
sg21
g22
sbag7
(g8
g9
NtRp2103
(dp2104
g12
g29
sg14
S'Bitstream Charter'
p2105
sg16
I700
sg17
g13
sg18
g13
sg19
g1789
sg21
g22
sbag7
(g8
g9
NtRp2106
(dp2107
g12
g13
sg14
S'LMMonoLt10'
p2108
sg16
I700
sg17
g13
sg18
g13
sg19
g1790
sg21
g22
sbag7
(g8
g9
NtRp2109
(dp2110
g12
g13
sg14
S'LMRomanDunh10'
p2111
sg16
I400
sg17
g13
sg18
g13
sg19
g1791
sg21
g22
sbag7
(g8
g9
NtRp2112
(dp2113
g12
g29
sg14
S'Courier 10 Pitch'
p2114
sg16
I700
sg17
g13
sg18
g13
sg19
g1792
sg21
g22
sbag7
(g8
g9
NtRp2115
(dp2116
g12
g29
sg14
S'Bitstream Charter'
p2117
sg16
I400
sg17
g13
sg18
g13
sg19
g1793
sg21
g22
sbag7
(g8
g9
NtRp2118
(dp2119
g12
g13
sg14
S'LMSans10'
p2120
sg16
I700
sg17
g13
sg18
g13
sg19
g1794
sg21
g22
sbag7
(g8
g9
NtRp2121
(dp2122
g12
g29
sg14
S'Nimbus Sans L'
p2123
sg16
I700
sg17
g179
sg18
g13
sg19
g1795
sg21
g22
sbag7
(g8
g9
NtRp2124
(dp2125
g12
g13
sg14
S'Nimbus Sans L'
p2126
sg16
I400
sg17
g13
sg18
g13
sg19
g1796
sg21
g22
sbag7
(g8
g9
NtRp2127
(dp2128
g12
g13
sg14
S'Dingbats'
p2129
sg16
I400
sg17
g13
sg18
g13
sg19
g1797
sg21
g22
sbag7
(g8
g9
NtRp2130
(dp2131
g12
g29
sg14
S'URW Bookman L'
p2132
sg16
I700
sg17
g13
sg18
g13
sg19
g1798
sg21
g22
sbag7
(g8
g9
NtRp2133
(dp2134
g12
g13
sg14
S'LMMonoProp10'
p2135
sg16
I400
sg17
g13
sg18
g13
sg19
g1799
sg21
g22
sbag7
(g8
g9
NtRp2136
(dp2137
g12
g13
sg14
S'LMMonoPropLt10'
p2138
sg16
I700
sg17
g13
sg18
g13
sg19
g1800
sg21
g22
sbag7
(g8
g9
NtRp2139
(dp2140
g12
g29
sg14
S'LMRomanDunh10'
p2141
sg16
I400
sg17
g13
sg18
g13
sg19
g1801
sg21
g22
sbag7
(g8
g9
NtRp2142
(dp2143
g12
g13
sg14
S'URW Gothic L'
p2144
sg16
I400
sg17
g13
sg18
g13
sg19
g1802
sg21
g22
sbag7
(g8
g9
NtRp2145
(dp2146
g12
g29
sg14
S'Courier 10 Pitch'
p2147
sg16
I400
sg17
g13
sg18
g13
sg19
g1803
sg21
g22
sbag7
(g8
g9
NtRp2148
(dp2149
g12
g29
sg14
S'LMSansDemiCond10'
p2150
sg16
I600
sg17
g179
sg18
g13
sg19
g1804
sg21
g22
sbag7
(g8
g9
NtRp2151
(dp2152
g12
g13
sg14
S'Nimbus Mono L'
p2153
sg16
I700
sg17
g13
sg18
g13
sg19
g1805
sg21
g22
sbag7
(g8
g9
NtRp2154
(dp2155
g12
g13
sg14
S'LMSansQuot8'
p2156
sg16
I400
sg17
g13
sg18
g13
sg19
g1806
sg21
g22
sbag7
(g8
g9
NtRp2157
(dp2158
g12
g13
sg14
S'LMSans10'
p2159
sg16
I400
sg17
g13
sg18
g13
sg19
g1807
sg21
g22
sbag7
(g8
g9
NtRp2160
(dp2161
g12
g29
sg14
S'LMRomanSlant10'
p2162
sg16
I400
sg17
g13
sg18
g13
sg19
g1809
sg21
g22
sbag7
(g8
g9
NtRp2163
(dp2164
g12
g13
sg14
S'Nimbus Roman No9 L'
p2165
sg16
I400
sg17
g13
sg18
g13
sg19
g1810
sg21
g22
sbag7
(g8
g9
NtRp2166
(dp2167
g12
g29
sg14
S'Century Schoolbook L'
p2168
sg16
I400
sg17
g13
sg18
g13
sg19
g1811
sg21
g22
sbag7
(g8
g9
NtRp2169
(dp2170
g12
g13
sg14
S'LMRomanCaps10'
p2171
sg16
I400
sg17
g13
sg18
g13
sg19
g1812
sg21
g22
sbag7
(g8
g9
NtRp2172
(dp2173
g12
g29
sg14
S'Nimbus Sans L'
p2174
sg16
I400
sg17
g13
sg18
g13
sg19
g1813
sg21
g22
sbag7
(g8
g9
NtRp2175
(dp2176
g12
g29
sg14
S'LMMonoLt10'
p2177
sg16
I700
sg17
g13
sg18
g13
sg19
g1814
sg21
g22
sbag7
(g8
g9
NtRp2178
(dp2179
g12
g29
sg14
S'LMMonoPropLt10'
p2180
sg16
I700
sg17
g13
sg18
g13
sg19
g1815
sg21
g22
sbag7
(g8
g9
NtRp2181
(dp2182
g12
g29
sg14
S'LMMono10'
p2183
sg16
I400
sg17
g13
sg18
g13
sg19
g1816
sg21
g22
sbag7
(g8
g9
NtRp2184
(dp2185
g12
g29
sg14
S'LMRomanDemi10'
p2186
sg16
I600
sg17
g13
sg18
g13
sg19
g1817
sg21
g22
sbag7
(g8
g9
NtRp2187
(dp2188
g12
g29
sg14
S'Century Schoolbook L'
p2189
sg16
I700
sg17
g13
sg18
g13
sg19
g1818
sg21
g22
sbag7
(g8
g9
NtRp2190
(dp2191
g12
g29
sg14
S'LMRoman10'
p2192
sg16
I400
sg17
g13
sg18
g13
sg19
g1819
sg21
g22
sbag7
(g8
g9
NtRp2193
(dp2194
g12
g13
sg14
S'Nimbus Sans L'
p2195
sg16
I700
sg17
g13
sg18
g13
sg19
g1820
sg21
g22
sbag7
(g8
g9
NtRp2196
(dp2197
g12
g29
sg14
S'LMSansQuot8'
p2198
sg16
I700
sg17
g13
sg18
g13
sg19
g1821
sg21
g22
sbag7
(g8
g9
NtRp2199
(dp2200
g12
g13
sg14
S'URW Palladio L'
p2201
sg16
I500
sg17
g13
sg18
g13
sg19
g1822
sg21
g22
sbag7
(g8
g9
NtRp2202
(dp2203
g12
g13
sg14
S'LMRoman10'
p2204
sg16
I400
sg17
g13
sg18
g13
sg19
g1823
sg21
g22
sbag7
(g8
g9
NtRp2205
(dp2206
g12
g13
sg14
S'URW Gothic L'
p2207
sg16
I600
sg17
g13
sg18
g13
sg19
g1824
sg21
g22
sbag7
(g8
g9
NtRp2208
(dp2209
g12
g13
sg14
S'LMSansQuot8'
p2210
sg16
I700
sg17
g13
sg18
g13
sg19
g1825
sg21
g22
sbag7
(g8
g9
NtRp2211
(dp2212
g12
g13
sg14
S'LMMono10'
p2213
sg16
I400
sg17
g13
sg18
g13
sg19
g1826
sg21
g22
sbag7
(g8
g9
NtRp2214
(dp2215
g12
g29
sg14
S'LMMonoProp10'
p2216
sg16
I400
sg17
g13
sg18
g13
sg19
g1827
sg21
g22
sbag7
(g8
g9
NtRp2217
(dp2218
g12
g13
sg14
S'LMSansDemiCond10'
p2219
sg16
I600
sg17
g179
sg18
g13
sg19
g1828
sg21
g22
sbag7
(g8
g9
NtRp2220
(dp2221
g12
g29
sg14
S'URW Bookman L'
p2222
sg16
I400
sg17
g13
sg18
g13
sg19
g1829
sg21
g22
sbag7
(g8
g9
NtRp2223
(dp2224
g12
g29
sg14
S'LMRomanCaps10'
p2225
sg16
I400
sg17
g13
sg18
g13
sg19
g1830
sg21
g22
sbag7
(g8
g9
NtRp2226
(dp2227
g12
g13
sg14
S'LMMonoLt10'
p2228
sg16
I200
sg17
g13
sg18
g13
sg19
g1831
sg21
g22
sbag7
(g8
g9
NtRp2229
(dp2230
g12
g13
sg14
S'Century Schoolbook L'
p2231
sg16
I700
sg17
g13
sg18
g13
sg19
g1832
sg21
g22
sbag7
(g8
g9
NtRp2232
(dp2233
g12
g13
sg14
S'Bitstream Charter'
p2234
sg16
I400
sg17
g13
sg18
g13
sg19
g1833
sg21
g22
sbag7
(g8
g9
NtRp2235
(dp2236
g12
g29
sg14
S'Nimbus Mono L'
p2237
sg16
I400
sg17
g13
sg18
g13
sg19
g1834
sg21
g22
sbag7
(g8
g9
NtRp2238
(dp2239
g12
g13
sg14
S'LMMonoLtCond10'
p2240
sg16
I200
sg17
g179
sg18
g13
sg19
g1835
sg21
g22
sbag7
(g8
g9
NtRp2241
(dp2242
g12
g29
sg14
S'Nimbus Roman No9 L'
p2243
sg16
I400
sg17
g13
sg18
g13
sg19
g1836
sg21
g22
sbag7
(g8
g9
NtRp2244
(dp2245
g12
g29
sg14
S'LMMonoLt10'
p2246
sg16
I200
sg17
g13
sg18
g13
sg19
g1837
sg21
g22
sbag7
(g8
g9
NtRp2247
(dp2248
g12
g29
sg14
S'LMSans10'
p2249
sg16
I700
sg17
g13
sg18
g13
sg19
g1838
sg21
g22
sbag7
(g8
g9
NtRp2250
(dp2251
g12
g13
sg14
S'Bitstream Charter'
p2252
sg16
I700
sg17
g13
sg18
g13
sg19
g1839
sg21
g22
sbag7
(g8
g9
NtRp2253
(dp2254
g12
g13
sg14
S'LMMonoPropLt10'
p2255
sg16
I200
sg17
g13
sg18
g13
sg19
g1840
sg21
g22
sbag7
(g8
g9
NtRp2256
(dp2257
g12
g29
sg14
S'URW Gothic L'
p2258
sg16
I600
sg17
g13
sg18
g13
sg19
g1841
sg21
g22
sbag7
(g8
g9
NtRp2259
(dp2260
g12
g29
sg14
S'LMSans10'
p2261
sg16
I400
sg17
g13
sg18
g13
sg19
g1842
sg21
g22
sbag7
(g8
g9
NtRp2262
(dp2263
g12
g29
sg14
S'Nimbus Sans L'
p2264
sg16
I400
sg17
g179
sg18
g13
sg19
g1843
sg21
g22
sbag7
(g8
g9
NtRp2265
(dp2266
g12
g13
sg14
S'LMRomanUnsl10'
p2267
sg16
I400
sg17
g13
sg18
g13
sg19
g1844
sg21
g22
sbag7
(g8
g9
NtRp2268
(dp2269
g12
g13
sg14
S'LMRomanDemi10'
p2270
sg16
I600
sg17
g13
sg18
g13
sg19
g1845
sg21
g22
sbag7
(g8
g9
NtRp2271
(dp2272
g12
g29
sg14
S'LMMonoLtCond10'
p2273
sg16
I200
sg17
g179
sg18
g13
sg19
g1846
sg21
g22
sbag7
(g8
g9
NtRp2274
(dp2275
g12
g13
sg14
S'URW Bookman L'
p2276
sg16
I700
sg17
g13
sg18
g13
sg19
g1847
sg21
g22
sbag7
(g8
g9
NtRp2277
(dp2278
g12
g13
sg14
S'Courier 10 Pitch'
p2279
sg16
I400
sg17
g13
sg18
g13
sg19
g1848
sg21
g22
sbasb.